	.file	"fibi.c"
	.text
	.def	printf;	.scl	3;	.type	32;	.endef
	.seh_proc	printf
printf:
	pushq	%rbp
	.seh_pushreg	%rbp
	pushq	%rbx
	.seh_pushreg	%rbx
	subq	$56, %rsp
	.seh_stackalloc	56
	leaq	48(%rsp), %rbp
	.seh_setframe	%rbp, 48
	.seh_endprologue
	movq	%rcx, 32(%rbp)
	movq	%rdx, 40(%rbp)
	movq	%r8, 48(%rbp)
	movq	%r9, 56(%rbp)
	leaq	40(%rbp), %rax
	movq	%rax, -16(%rbp)
	movq	-16(%rbp), %rbx
	movl	$1, %ecx
	movq	__imp___acrt_iob_func(%rip), %rax
	call	*%rax
	movq	%rbx, %r8
	movq	32(%rbp), %rdx
	movq	%rax, %rcx
	call	__mingw_vfprintf
	movl	%eax, -4(%rbp)
	movl	-4(%rbp), %eax
	addq	$56, %rsp
	popq	%rbx
	popq	%rbp
	ret
	.seh_endproc
	.def	__main;	.scl	2;	.type	32;	.endef
	.section .rdata,"dr"
.LC0:
	.ascii "%i\12\0"
	.text
	.globl	main
	.def	main;	.scl	2;	.type	32;	.endef
	.seh_proc	main
main:
	pushq	%rbp
	.seh_pushreg	%rbp
	movq	%rsp, %rbp
	.seh_setframe	%rbp, 0
	subq	$48, %rsp
	.seh_stackalloc	48
	.seh_endprologue
	call	__main
	movl	$0, -4(%rbp)
	jmp	.L4
.L5:
	movl	-4(%rbp), %eax
	movl	%eax, %ecx
	call	fib
	movl	%eax, %edx
	leaq	.LC0(%rip), %rax
	movq	%rax, %rcx
	call	printf
	addl	$1, -4(%rbp)
.L4:
	cmpl	$100, -4(%rbp)
	jle	.L5
	movl	$0, %eax
	addq	$48, %rsp
	popq	%rbp
	ret
	.seh_endproc
	.globl	fib
	.def	fib;	.scl	2;	.type	32;	.endef
	.seh_proc	fib
fib:
	pushq	%rbp
	.seh_pushreg	%rbp
	pushq	%rbx
	.seh_pushreg	%rbx
	subq	$40, %rsp
	.seh_stackalloc	40
	leaq	32(%rsp), %rbp
	.seh_setframe	%rbp, 32
	.seh_endprologue
	movl	%ecx, 32(%rbp)
	cmpl	$1, 32(%rbp)
	jg	.L8
	movl	32(%rbp), %eax
	jmp	.L9
.L8:
	movl	32(%rbp), %eax
	subl	$1, %eax
	movl	%eax, %ecx
	call	fib
	movl	%eax, %ebx
	movl	32(%rbp), %eax
	subl	$2, %eax
	movl	%eax, %ecx
	call	fib
	addl	%ebx, %eax
.L9:
	addq	$40, %rsp
	popq	%rbx
	popq	%rbp
	ret
	.seh_endproc
	.def	__mingw_vfprintf;	.scl	2;	.type	32;	.endef
