	.text
	.def	@feat.00;
	.scl	3;
	.type	0;
	.endef
	.globl	@feat.00
.set @feat.00, 0
	.file	"main.bab9051b-cgu.0"
	.def	_ZN107_$LT$core..ops..range..RangeInclusive$LT$T$GT$$u20$as$u20$core..iter..range..RangeInclusiveIteratorImpl$GT$9spec_next17hf1eb81b086570f39E;
	.scl	3;
	.type	32;
	.endef
	.section	.text,"xr",one_only,_ZN107_$LT$core..ops..range..RangeInclusive$LT$T$GT$$u20$as$u20$core..iter..range..RangeInclusiveIteratorImpl$GT$9spec_next17hf1eb81b086570f39E
	.p2align	4, 0x90
_ZN107_$LT$core..ops..range..RangeInclusive$LT$T$GT$$u20$as$u20$core..iter..range..RangeInclusiveIteratorImpl$GT$9spec_next17hf1eb81b086570f39E:
.seh_proc _ZN107_$LT$core..ops..range..RangeInclusive$LT$T$GT$$u20$as$u20$core..iter..range..RangeInclusiveIteratorImpl$GT$9spec_next17hf1eb81b086570f39E
	subq	$104, %rsp
	.seh_stackalloc 104
	.seh_endprologue
	movq	%rcx, 64(%rsp)
	callq	_ZN4core3ops5range25RangeInclusive$LT$Idx$GT$8is_empty17hec880072ece6dadaE
	movb	%al, 79(%rsp)
	movb	79(%rsp), %al
	testb	$1, %al
	jne	.LBB0_3
	jmp	.LBB0_2
.LBB0_2:
	movq	64(%rsp), %rdx
	movq	%rdx, %rcx
	addq	$8, %rdx
	callq	_ZN4core3cmp5impls55_$LT$impl$u20$core..cmp..PartialOrd$u20$for$u20$i64$GT$2lt17hcc325c169cf6b101E
	movb	%al, 63(%rsp)
	jmp	.LBB0_5
.LBB0_3:
	movq	$0, 80(%rsp)
.LBB0_4:
	movq	80(%rsp), %rax
	movq	88(%rsp), %rdx
	addq	$104, %rsp
	retq
.LBB0_5:
	movb	63(%rsp), %al
	testb	$1, %al
	jne	.LBB0_7
	jmp	.LBB0_6
.LBB0_6:
	movq	64(%rsp), %rcx
	movb	$1, 16(%rcx)
	callq	_ZN4core5clone5impls52_$LT$impl$u20$core..clone..Clone$u20$for$u20$i64$GT$5clone17h154577023fb3deb2E
	movq	%rax, 96(%rsp)
	jmp	.LBB0_12
.LBB0_7:
	movq	64(%rsp), %rcx
	callq	_ZN4core5clone5impls52_$LT$impl$u20$core..clone..Clone$u20$for$u20$i64$GT$5clone17h154577023fb3deb2E
	movq	%rax, 48(%rsp)
	movq	48(%rsp), %rcx
	movl	$1, %edx
	callq	_ZN47_$LT$i64$u20$as$u20$core..iter..range..Step$GT$17forward_unchecked17hfc47baf32ab840b6E
	movq	%rax, 40(%rsp)
	movq	40(%rsp), %rdx
	movq	64(%rsp), %rcx
	callq	_ZN4core3mem7replace17heb9cf625fd8369bcE
	movq	%rax, 96(%rsp)
	jmp	.LBB0_11
.LBB0_11:
	movq	96(%rsp), %rax
	movq	%rax, 88(%rsp)
	movq	$1, 80(%rsp)
	jmp	.LBB0_4
.LBB0_12:
	jmp	.LBB0_11
	.seh_endproc

	.def	_ZN119_$LT$core..ptr..non_null..NonNull$LT$T$GT$$u20$as$u20$core..convert..From$LT$core..ptr..unique..Unique$LT$T$GT$$GT$$GT$4from17h8d41f71b7abe4af4E;
	.scl	3;
	.type	32;
	.endef
	.section	.text,"xr",one_only,_ZN119_$LT$core..ptr..non_null..NonNull$LT$T$GT$$u20$as$u20$core..convert..From$LT$core..ptr..unique..Unique$LT$T$GT$$GT$$GT$4from17h8d41f71b7abe4af4E
	.p2align	4, 0x90
_ZN119_$LT$core..ptr..non_null..NonNull$LT$T$GT$$u20$as$u20$core..convert..From$LT$core..ptr..unique..Unique$LT$T$GT$$GT$$GT$4from17h8d41f71b7abe4af4E:
.seh_proc _ZN119_$LT$core..ptr..non_null..NonNull$LT$T$GT$$u20$as$u20$core..convert..From$LT$core..ptr..unique..Unique$LT$T$GT$$GT$$GT$4from17h8d41f71b7abe4af4E
	subq	$56, %rsp
	.seh_stackalloc 56
	.seh_endprologue
	callq	_ZN4core3ptr6unique15Unique$LT$T$GT$6as_ptr17h2a71b163411f8313E
	movq	%rax, 48(%rsp)
	movq	48(%rsp), %rcx
	callq	_ZN4core3ptr8non_null16NonNull$LT$T$GT$13new_unchecked17h3c2e23cb5eeb7993E
	movq	%rax, 40(%rsp)
	movq	40(%rsp), %rax
	addq	$56, %rsp
	retq
	.seh_endproc

	.def	_ZN119_$LT$core..ptr..unique..Unique$LT$T$GT$$u20$as$u20$core..convert..From$LT$core..ptr..non_null..NonNull$LT$T$GT$$GT$$GT$4from17h4041fb19e61380f7E;
	.scl	3;
	.type	32;
	.endef
	.section	.text,"xr",one_only,_ZN119_$LT$core..ptr..unique..Unique$LT$T$GT$$u20$as$u20$core..convert..From$LT$core..ptr..non_null..NonNull$LT$T$GT$$GT$$GT$4from17h4041fb19e61380f7E
	.p2align	4, 0x90
_ZN119_$LT$core..ptr..unique..Unique$LT$T$GT$$u20$as$u20$core..convert..From$LT$core..ptr..non_null..NonNull$LT$T$GT$$GT$$GT$4from17h4041fb19e61380f7E:
.seh_proc _ZN119_$LT$core..ptr..unique..Unique$LT$T$GT$$u20$as$u20$core..convert..From$LT$core..ptr..non_null..NonNull$LT$T$GT$$GT$$GT$4from17h4041fb19e61380f7E
	subq	$16, %rsp
	.seh_stackalloc 16
	.seh_endprologue
	movq	%rcx, (%rsp)
	movq	%rdx, 8(%rsp)
	movq	(%rsp), %rax
	movq	8(%rsp), %rdx
	addq	$16, %rsp
	retq
	.seh_endproc

	.def	_ZN119_$LT$core..ptr..unique..Unique$LT$T$GT$$u20$as$u20$core..convert..From$LT$core..ptr..non_null..NonNull$LT$T$GT$$GT$$GT$4from17hf5672e72389d0282E;
	.scl	3;
	.type	32;
	.endef
	.section	.text,"xr",one_only,_ZN119_$LT$core..ptr..unique..Unique$LT$T$GT$$u20$as$u20$core..convert..From$LT$core..ptr..non_null..NonNull$LT$T$GT$$GT$$GT$4from17hf5672e72389d0282E
	.p2align	4, 0x90
_ZN119_$LT$core..ptr..unique..Unique$LT$T$GT$$u20$as$u20$core..convert..From$LT$core..ptr..non_null..NonNull$LT$T$GT$$GT$$GT$4from17hf5672e72389d0282E:
.seh_proc _ZN119_$LT$core..ptr..unique..Unique$LT$T$GT$$u20$as$u20$core..convert..From$LT$core..ptr..non_null..NonNull$LT$T$GT$$GT$$GT$4from17hf5672e72389d0282E
	pushq	%rax
	.seh_stackalloc 8
	.seh_endprologue
	movq	%rcx, (%rsp)
	movq	(%rsp), %rax
	popq	%rcx
	retq
	.seh_endproc

	.def	_ZN122_$LT$alloc..collections..TryReserveError$u20$as$u20$core..convert..From$LT$alloc..collections..TryReserveErrorKind$GT$$GT$4from17hbdbe436c663d0411E;
	.scl	3;
	.type	32;
	.endef
	.section	.text,"xr",one_only,_ZN122_$LT$alloc..collections..TryReserveError$u20$as$u20$core..convert..From$LT$alloc..collections..TryReserveErrorKind$GT$$GT$4from17hbdbe436c663d0411E
	.p2align	4, 0x90
_ZN122_$LT$alloc..collections..TryReserveError$u20$as$u20$core..convert..From$LT$alloc..collections..TryReserveErrorKind$GT$$GT$4from17hbdbe436c663d0411E:
.seh_proc _ZN122_$LT$alloc..collections..TryReserveError$u20$as$u20$core..convert..From$LT$alloc..collections..TryReserveErrorKind$GT$$GT$4from17hbdbe436c663d0411E
	subq	$16, %rsp
	.seh_stackalloc 16
	.seh_endprologue
	movq	%rcx, (%rsp)
	movq	%rdx, 8(%rsp)
	movq	(%rsp), %rax
	movq	8(%rsp), %rdx
	addq	$16, %rsp
	retq
	.seh_endproc

	.def	_ZN153_$LT$core..result..Result$LT$T$C$F$GT$$u20$as$u20$core..ops..try_trait..FromResidual$LT$core..result..Result$LT$core..convert..Infallible$C$E$GT$$GT$$GT$13from_residual17h1d9b5560aea99b49E;
	.scl	3;
	.type	32;
	.endef
	.section	.text,"xr",one_only,_ZN153_$LT$core..result..Result$LT$T$C$F$GT$$u20$as$u20$core..ops..try_trait..FromResidual$LT$core..result..Result$LT$core..convert..Infallible$C$E$GT$$GT$$GT$13from_residual17h1d9b5560aea99b49E
	.p2align	4, 0x90
_ZN153_$LT$core..result..Result$LT$T$C$F$GT$$u20$as$u20$core..ops..try_trait..FromResidual$LT$core..result..Result$LT$core..convert..Infallible$C$E$GT$$GT$$GT$13from_residual17h1d9b5560aea99b49E:
.seh_proc _ZN153_$LT$core..result..Result$LT$T$C$F$GT$$u20$as$u20$core..ops..try_trait..FromResidual$LT$core..result..Result$LT$core..convert..Infallible$C$E$GT$$GT$$GT$13from_residual17h1d9b5560aea99b49E
	subq	$88, %rsp
	.seh_stackalloc 88
	.seh_endprologue
	movq	%rcx, 40(%rsp)
	movq	%rcx, 48(%rsp)
	movq	%rdx, 72(%rsp)
	movq	%r8, 80(%rsp)
	movq	72(%rsp), %rcx
	movq	80(%rsp), %rdx
	callq	_ZN122_$LT$alloc..collections..TryReserveError$u20$as$u20$core..convert..From$LT$alloc..collections..TryReserveErrorKind$GT$$GT$4from17hbdbe436c663d0411E
	movq	%rax, 56(%rsp)
	movq	%rdx, 64(%rsp)
	movq	48(%rsp), %rax
	movq	40(%rsp), %rcx
	movq	64(%rsp), %rdx
	movq	56(%rsp), %r8
	movq	%r8, 8(%rcx)
	movq	%rdx, 16(%rcx)
	movq	$1, (%rcx)
	addq	$88, %rsp
	retq
	.seh_endproc

	.def	_ZN153_$LT$core..result..Result$LT$T$C$F$GT$$u20$as$u20$core..ops..try_trait..FromResidual$LT$core..result..Result$LT$core..convert..Infallible$C$E$GT$$GT$$GT$13from_residual17h206cce60ca5c6bfbE;
	.scl	3;
	.type	32;
	.endef
	.section	.text,"xr",one_only,_ZN153_$LT$core..result..Result$LT$T$C$F$GT$$u20$as$u20$core..ops..try_trait..FromResidual$LT$core..result..Result$LT$core..convert..Infallible$C$E$GT$$GT$$GT$13from_residual17h206cce60ca5c6bfbE
	.p2align	4, 0x90
_ZN153_$LT$core..result..Result$LT$T$C$F$GT$$u20$as$u20$core..ops..try_trait..FromResidual$LT$core..result..Result$LT$core..convert..Infallible$C$E$GT$$GT$$GT$13from_residual17h206cce60ca5c6bfbE:
.seh_proc _ZN153_$LT$core..result..Result$LT$T$C$F$GT$$u20$as$u20$core..ops..try_trait..FromResidual$LT$core..result..Result$LT$core..convert..Infallible$C$E$GT$$GT$$GT$13from_residual17h206cce60ca5c6bfbE
	subq	$56, %rsp
	.seh_stackalloc 56
	.seh_endprologue
	callq	_ZN50_$LT$T$u20$as$u20$core..convert..From$LT$T$GT$$GT$4from17h0995537dc509657cE
	movq	$0, 48(%rsp)
	movq	40(%rsp), %rax
	movq	48(%rsp), %rdx
	addq	$56, %rsp
	retq
	.seh_endproc

	.def	_ZN153_$LT$core..result..Result$LT$T$C$F$GT$$u20$as$u20$core..ops..try_trait..FromResidual$LT$core..result..Result$LT$core..convert..Infallible$C$E$GT$$GT$$GT$13from_residual17h485825a9cb1b251fE;
	.scl	3;
	.type	32;
	.endef
	.section	.text,"xr",one_only,_ZN153_$LT$core..result..Result$LT$T$C$F$GT$$u20$as$u20$core..ops..try_trait..FromResidual$LT$core..result..Result$LT$core..convert..Infallible$C$E$GT$$GT$$GT$13from_residual17h485825a9cb1b251fE
	.p2align	4, 0x90
_ZN153_$LT$core..result..Result$LT$T$C$F$GT$$u20$as$u20$core..ops..try_trait..FromResidual$LT$core..result..Result$LT$core..convert..Infallible$C$E$GT$$GT$$GT$13from_residual17h485825a9cb1b251fE:
.seh_proc _ZN153_$LT$core..result..Result$LT$T$C$F$GT$$u20$as$u20$core..ops..try_trait..FromResidual$LT$core..result..Result$LT$core..convert..Infallible$C$E$GT$$GT$$GT$13from_residual17h485825a9cb1b251fE
	subq	$56, %rsp
	.seh_stackalloc 56
	.seh_endprologue
	callq	_ZN50_$LT$T$u20$as$u20$core..convert..From$LT$T$GT$$GT$4from17h794150060db9bd4dE
	movq	$0, 40(%rsp)
	movq	40(%rsp), %rax
	movq	48(%rsp), %rdx
	addq	$56, %rsp
	retq
	.seh_endproc

	.def	_ZN153_$LT$core..result..Result$LT$T$C$F$GT$$u20$as$u20$core..ops..try_trait..FromResidual$LT$core..result..Result$LT$core..convert..Infallible$C$E$GT$$GT$$GT$13from_residual17h7183f811ae1d70b6E;
	.scl	3;
	.type	32;
	.endef
	.section	.text,"xr",one_only,_ZN153_$LT$core..result..Result$LT$T$C$F$GT$$u20$as$u20$core..ops..try_trait..FromResidual$LT$core..result..Result$LT$core..convert..Infallible$C$E$GT$$GT$$GT$13from_residual17h7183f811ae1d70b6E
	.p2align	4, 0x90
_ZN153_$LT$core..result..Result$LT$T$C$F$GT$$u20$as$u20$core..ops..try_trait..FromResidual$LT$core..result..Result$LT$core..convert..Infallible$C$E$GT$$GT$$GT$13from_residual17h7183f811ae1d70b6E:
.seh_proc _ZN153_$LT$core..result..Result$LT$T$C$F$GT$$u20$as$u20$core..ops..try_trait..FromResidual$LT$core..result..Result$LT$core..convert..Infallible$C$E$GT$$GT$$GT$13from_residual17h7183f811ae1d70b6E
	subq	$88, %rsp
	.seh_stackalloc 88
	.seh_endprologue
	movq	%rcx, 56(%rsp)
	movq	%rdx, 64(%rsp)
	movq	56(%rsp), %rcx
	movq	64(%rsp), %rdx
	callq	_ZN50_$LT$T$u20$as$u20$core..convert..From$LT$T$GT$$GT$4from17h218d4965c26a1dbcE
	movq	%rax, 40(%rsp)
	movq	%rdx, 48(%rsp)
	movq	48(%rsp), %rax
	movq	40(%rsp), %rcx
	movq	%rcx, 72(%rsp)
	movq	%rax, 80(%rsp)
	movq	72(%rsp), %rax
	movq	80(%rsp), %rdx
	addq	$88, %rsp
	retq
	.seh_endproc

	.def	_ZN153_$LT$core..result..Result$LT$T$C$F$GT$$u20$as$u20$core..ops..try_trait..FromResidual$LT$core..result..Result$LT$core..convert..Infallible$C$E$GT$$GT$$GT$13from_residual17h8ae351a3d5970a6dE;
	.scl	3;
	.type	32;
	.endef
	.section	.text,"xr",one_only,_ZN153_$LT$core..result..Result$LT$T$C$F$GT$$u20$as$u20$core..ops..try_trait..FromResidual$LT$core..result..Result$LT$core..convert..Infallible$C$E$GT$$GT$$GT$13from_residual17h8ae351a3d5970a6dE
	.p2align	4, 0x90
_ZN153_$LT$core..result..Result$LT$T$C$F$GT$$u20$as$u20$core..ops..try_trait..FromResidual$LT$core..result..Result$LT$core..convert..Infallible$C$E$GT$$GT$$GT$13from_residual17h8ae351a3d5970a6dE:
.seh_proc _ZN153_$LT$core..result..Result$LT$T$C$F$GT$$u20$as$u20$core..ops..try_trait..FromResidual$LT$core..result..Result$LT$core..convert..Infallible$C$E$GT$$GT$$GT$13from_residual17h8ae351a3d5970a6dE
	subq	$88, %rsp
	.seh_stackalloc 88
	.seh_endprologue
	movq	%rcx, 40(%rsp)
	movq	%rcx, 48(%rsp)
	movq	%rdx, 72(%rsp)
	movq	%r8, 80(%rsp)
	movq	72(%rsp), %rcx
	movq	80(%rsp), %rdx
	callq	_ZN50_$LT$T$u20$as$u20$core..convert..From$LT$T$GT$$GT$4from17h218d4965c26a1dbcE
	movq	%rax, 56(%rsp)
	movq	%rdx, 64(%rsp)
	movq	48(%rsp), %rax
	movq	40(%rsp), %rcx
	movq	64(%rsp), %rdx
	movq	56(%rsp), %r8
	movq	%r8, 8(%rcx)
	movq	%rdx, 16(%rcx)
	movq	$1, (%rcx)
	addq	$88, %rsp
	retq
	.seh_endproc

	.def	_ZN153_$LT$core..result..Result$LT$T$C$F$GT$$u20$as$u20$core..ops..try_trait..FromResidual$LT$core..result..Result$LT$core..convert..Infallible$C$E$GT$$GT$$GT$13from_residual17hb187dfd94fb4dc5eE;
	.scl	3;
	.type	32;
	.endef
	.section	.text,"xr",one_only,_ZN153_$LT$core..result..Result$LT$T$C$F$GT$$u20$as$u20$core..ops..try_trait..FromResidual$LT$core..result..Result$LT$core..convert..Infallible$C$E$GT$$GT$$GT$13from_residual17hb187dfd94fb4dc5eE
	.p2align	4, 0x90
_ZN153_$LT$core..result..Result$LT$T$C$F$GT$$u20$as$u20$core..ops..try_trait..FromResidual$LT$core..result..Result$LT$core..convert..Infallible$C$E$GT$$GT$$GT$13from_residual17hb187dfd94fb4dc5eE:
.seh_proc _ZN153_$LT$core..result..Result$LT$T$C$F$GT$$u20$as$u20$core..ops..try_trait..FromResidual$LT$core..result..Result$LT$core..convert..Infallible$C$E$GT$$GT$$GT$13from_residual17hb187dfd94fb4dc5eE
	subq	$56, %rsp
	.seh_stackalloc 56
	.seh_endprologue
	movq	%rcx, 40(%rsp)
	movq	%rcx, 48(%rsp)
	callq	_ZN50_$LT$T$u20$as$u20$core..convert..From$LT$T$GT$$GT$4from17h9d62d580acbfefa2E
	movq	48(%rsp), %rax
	movq	40(%rsp), %rcx
	movq	$1, (%rcx)
	addq	$56, %rsp
	retq
	.seh_endproc

	.def	_ZN153_$LT$core..result..Result$LT$T$C$F$GT$$u20$as$u20$core..ops..try_trait..FromResidual$LT$core..result..Result$LT$core..convert..Infallible$C$E$GT$$GT$$GT$13from_residual17hfd50743fae304e18E;
	.scl	3;
	.type	32;
	.endef
	.section	.text,"xr",one_only,_ZN153_$LT$core..result..Result$LT$T$C$F$GT$$u20$as$u20$core..ops..try_trait..FromResidual$LT$core..result..Result$LT$core..convert..Infallible$C$E$GT$$GT$$GT$13from_residual17hfd50743fae304e18E
	.p2align	4, 0x90
_ZN153_$LT$core..result..Result$LT$T$C$F$GT$$u20$as$u20$core..ops..try_trait..FromResidual$LT$core..result..Result$LT$core..convert..Infallible$C$E$GT$$GT$$GT$13from_residual17hfd50743fae304e18E:
.seh_proc _ZN153_$LT$core..result..Result$LT$T$C$F$GT$$u20$as$u20$core..ops..try_trait..FromResidual$LT$core..result..Result$LT$core..convert..Infallible$C$E$GT$$GT$$GT$13from_residual17hfd50743fae304e18E
	subq	$88, %rsp
	.seh_stackalloc 88
	.seh_endprologue
	movq	%rcx, 56(%rsp)
	movq	%rdx, 64(%rsp)
	movq	56(%rsp), %rcx
	movq	64(%rsp), %rdx
	callq	_ZN122_$LT$alloc..collections..TryReserveError$u20$as$u20$core..convert..From$LT$alloc..collections..TryReserveErrorKind$GT$$GT$4from17hbdbe436c663d0411E
	movq	%rax, 40(%rsp)
	movq	%rdx, 48(%rsp)
	movq	48(%rsp), %rax
	movq	40(%rsp), %rcx
	movq	%rcx, 72(%rsp)
	movq	%rax, 80(%rsp)
	movq	72(%rsp), %rax
	movq	80(%rsp), %rdx
	addq	$88, %rsp
	retq
	.seh_endproc

	.def	_ZN3std10sys_common9backtrace28__rust_begin_short_backtrace17h6f90b3e5112ef4dfE;
	.scl	3;
	.type	32;
	.endef
	.section	.text,"xr",one_only,_ZN3std10sys_common9backtrace28__rust_begin_short_backtrace17h6f90b3e5112ef4dfE
	.p2align	4, 0x90
_ZN3std10sys_common9backtrace28__rust_begin_short_backtrace17h6f90b3e5112ef4dfE:
.Lfunc_begin0:
.seh_proc _ZN3std10sys_common9backtrace28__rust_begin_short_backtrace17h6f90b3e5112ef4dfE
	.seh_handler __CxxFrameHandler3, @unwind, @except
	pushq	%rbp
	.seh_pushreg %rbp
	subq	$48, %rsp
	.seh_stackalloc 48
	leaq	48(%rsp), %rbp
	.seh_setframe %rbp, 48
	.seh_endprologue
	movq	$-2, -8(%rbp)
	callq	_ZN4core3ops8function6FnOnce9call_once17ha51a7f21a841af17E
.Ltmp0:
	callq	_ZN4core4hint9black_box17h9ed10d7a569c7252E
.Ltmp1:
	jmp	.LBB12_2
.LBB12_2:
	addq	$48, %rsp
	popq	%rbp
	retq
	.seh_handlerdata
	.long	($cppxdata$_ZN3std10sys_common9backtrace28__rust_begin_short_backtrace17h6f90b3e5112ef4dfE)@IMGREL
	.section	.text,"xr",one_only,_ZN3std10sys_common9backtrace28__rust_begin_short_backtrace17h6f90b3e5112ef4dfE
	.seh_endproc
	.def	"?dtor$1@?0?_ZN3std10sys_common9backtrace28__rust_begin_short_backtrace17h6f90b3e5112ef4dfE@4HA";
	.scl	3;
	.type	32;
	.endef
	.p2align	4, 0x90
"?dtor$1@?0?_ZN3std10sys_common9backtrace28__rust_begin_short_backtrace17h6f90b3e5112ef4dfE@4HA":
.seh_proc "?dtor$1@?0?_ZN3std10sys_common9backtrace28__rust_begin_short_backtrace17h6f90b3e5112ef4dfE@4HA"
.LBB12_1:
	movq	%rdx, 16(%rsp)
	pushq	%rbp
	.seh_pushreg %rbp
	subq	$32, %rsp
	.seh_stackalloc 32
	leaq	48(%rdx), %rbp
	.seh_endprologue
	addq	$32, %rsp
	popq	%rbp
	retq
.Lfunc_end0:
	.seh_handlerdata
	.section	.text,"xr",one_only,_ZN3std10sys_common9backtrace28__rust_begin_short_backtrace17h6f90b3e5112ef4dfE
	.seh_endproc
	.section	.xdata,"dr",associative,_ZN3std10sys_common9backtrace28__rust_begin_short_backtrace17h6f90b3e5112ef4dfE
	.p2align	2
$cppxdata$_ZN3std10sys_common9backtrace28__rust_begin_short_backtrace17h6f90b3e5112ef4dfE:
	.long	429065506
	.long	1
	.long	($stateUnwindMap$_ZN3std10sys_common9backtrace28__rust_begin_short_backtrace17h6f90b3e5112ef4dfE)@IMGREL
	.long	0
	.long	0
	.long	3
	.long	($ip2state$_ZN3std10sys_common9backtrace28__rust_begin_short_backtrace17h6f90b3e5112ef4dfE)@IMGREL
	.long	40
	.long	0
	.long	1
$stateUnwindMap$_ZN3std10sys_common9backtrace28__rust_begin_short_backtrace17h6f90b3e5112ef4dfE:
	.long	-1
	.long	"?dtor$1@?0?_ZN3std10sys_common9backtrace28__rust_begin_short_backtrace17h6f90b3e5112ef4dfE@4HA"@IMGREL
$ip2state$_ZN3std10sys_common9backtrace28__rust_begin_short_backtrace17h6f90b3e5112ef4dfE:
	.long	.Lfunc_begin0@IMGREL
	.long	-1
	.long	.Ltmp0@IMGREL+1
	.long	0
	.long	.Ltmp1@IMGREL+1
	.long	-1
	.section	.text,"xr",one_only,_ZN3std10sys_common9backtrace28__rust_begin_short_backtrace17h6f90b3e5112ef4dfE

	.def	_ZN3std11collections4hash3map11RandomState3new17h0fa7f71b41c6d95fE;
	.scl	3;
	.type	32;
	.endef
	.section	.text,"xr",one_only,_ZN3std11collections4hash3map11RandomState3new17h0fa7f71b41c6d95fE
	.p2align	4, 0x90
_ZN3std11collections4hash3map11RandomState3new17h0fa7f71b41c6d95fE:
.seh_proc _ZN3std11collections4hash3map11RandomState3new17h0fa7f71b41c6d95fE
	subq	$56, %rsp
	.seh_stackalloc 56
	.seh_endprologue
	leaq	__unnamed_1(%rip), %rcx
	callq	_ZN3std6thread5local17LocalKey$LT$T$GT$4with17hc23d6ec4d4bfbbbeE
	movq	%rax, 40(%rsp)
	movq	%rdx, 48(%rsp)
	movq	48(%rsp), %rdx
	movq	40(%rsp), %rax
	addq	$56, %rsp
	retq
	.seh_endproc

	.def	_ZN3std11collections4hash3map11RandomState3new28_$u7b$$u7b$closure$u7d$$u7d$17h5c8c66777057aed5E;
	.scl	3;
	.type	32;
	.endef
	.section	.text,"xr",one_only,_ZN3std11collections4hash3map11RandomState3new28_$u7b$$u7b$closure$u7d$$u7d$17h5c8c66777057aed5E
	.p2align	4, 0x90
_ZN3std11collections4hash3map11RandomState3new28_$u7b$$u7b$closure$u7d$$u7d$17h5c8c66777057aed5E:
.seh_proc _ZN3std11collections4hash3map11RandomState3new28_$u7b$$u7b$closure$u7d$$u7d$17h5c8c66777057aed5E
	subq	$104, %rsp
	.seh_stackalloc 104
	.seh_endprologue
	movq	%rcx, 48(%rsp)
	callq	_ZN4core4cell13Cell$LT$T$GT$3get17h167f6826215dbd2fE
	movq	%rax, 56(%rsp)
	movq	%rdx, 64(%rsp)
	movq	56(%rsp), %rax
	addq	$1, %rax
	movq	%rax, 40(%rsp)
	movq	48(%rsp), %rcx
	movq	64(%rsp), %rax
	movq	40(%rsp), %rdx
	movq	%rdx, 88(%rsp)
	movq	%rax, 96(%rsp)
	movq	88(%rsp), %rdx
	movq	96(%rsp), %r8
	callq	_ZN4core4cell13Cell$LT$T$GT$3set17h6c6035858008fc3dE
	movq	64(%rsp), %rax
	movq	56(%rsp), %rcx
	movq	%rcx, 72(%rsp)
	movq	%rax, 80(%rsp)
	movq	72(%rsp), %rax
	movq	80(%rsp), %rdx
	addq	$104, %rsp
	retq
	.seh_endproc

	.def	_ZN3std11collections4hash3set16HashSet$LT$T$GT$3new17hc947bff27dbca105E;
	.scl	3;
	.type	32;
	.endef
	.section	.text,"xr",one_only,_ZN3std11collections4hash3set16HashSet$LT$T$GT$3new17hc947bff27dbca105E
	.p2align	4, 0x90
_ZN3std11collections4hash3set16HashSet$LT$T$GT$3new17hc947bff27dbca105E:
.seh_proc _ZN3std11collections4hash3set16HashSet$LT$T$GT$3new17hc947bff27dbca105E
	subq	$40, %rsp
	.seh_stackalloc 40
	.seh_endprologue
	movq	%rcx, %rax
	movq	%rax, 32(%rsp)
	callq	_ZN92_$LT$std..collections..hash..set..HashSet$LT$T$C$S$GT$$u20$as$u20$core..default..Default$GT$7default17h23e16a89322b89efE
	movq	32(%rsp), %rax
	addq	$40, %rsp
	retq
	.seh_endproc

	.def	_ZN3std2rt10lang_start17h57dee2fe1aa1d1f4E;
	.scl	2;
	.type	32;
	.endef
	.section	.text,"xr",one_only,_ZN3std2rt10lang_start17h57dee2fe1aa1d1f4E
	.globl	_ZN3std2rt10lang_start17h57dee2fe1aa1d1f4E
	.p2align	4, 0x90
_ZN3std2rt10lang_start17h57dee2fe1aa1d1f4E:
.seh_proc _ZN3std2rt10lang_start17h57dee2fe1aa1d1f4E
	subq	$56, %rsp
	.seh_stackalloc 56
	.seh_endprologue
	movq	%r8, %r9
	movq	%rdx, %r8
	movq	%rcx, 48(%rsp)
	leaq	48(%rsp), %rcx
	leaq	__unnamed_2(%rip), %rdx
	callq	_ZN3std2rt19lang_start_internal17h5e4894c4b183802bE
	movq	%rax, 40(%rsp)
	movq	40(%rsp), %rax
	addq	$56, %rsp
	retq
	.seh_endproc

	.def	_ZN3std2rt10lang_start28_$u7b$$u7b$closure$u7d$$u7d$17hb77117b5d731097eE;
	.scl	3;
	.type	32;
	.endef
	.section	.text,"xr",one_only,_ZN3std2rt10lang_start28_$u7b$$u7b$closure$u7d$$u7d$17hb77117b5d731097eE
	.p2align	4, 0x90
_ZN3std2rt10lang_start28_$u7b$$u7b$closure$u7d$$u7d$17hb77117b5d731097eE:
.seh_proc _ZN3std2rt10lang_start28_$u7b$$u7b$closure$u7d$$u7d$17hb77117b5d731097eE
	subq	$40, %rsp
	.seh_stackalloc 40
	.seh_endprologue
	movq	(%rcx), %rcx
	callq	_ZN3std10sys_common9backtrace28__rust_begin_short_backtrace17h6f90b3e5112ef4dfE
	callq	_ZN54_$LT$$LP$$RP$$u20$as$u20$std..process..Termination$GT$6report17ha9b7f17fdb3ef236E
	movl	%eax, 36(%rsp)
	movl	36(%rsp), %ecx
	callq	_ZN3std7process8ExitCode6to_i3217h2686d64f2b0d35a2E
	movl	%eax, 32(%rsp)
	movl	32(%rsp), %eax
	addq	$40, %rsp
	retq
	.seh_endproc

	.def	_ZN3std3sys7windows7process8ExitCode6as_i3217h1ea1abdafb085cdaE;
	.scl	3;
	.type	32;
	.endef
	.section	.text,"xr",one_only,_ZN3std3sys7windows7process8ExitCode6as_i3217h1ea1abdafb085cdaE
	.p2align	4, 0x90
_ZN3std3sys7windows7process8ExitCode6as_i3217h1ea1abdafb085cdaE:
	movl	(%rcx), %eax
	retq

	.def	_ZN3std6thread5local17LocalKey$LT$T$GT$4with17hc23d6ec4d4bfbbbeE;
	.scl	3;
	.type	32;
	.endef
	.section	.text,"xr",one_only,_ZN3std6thread5local17LocalKey$LT$T$GT$4with17hc23d6ec4d4bfbbbeE
	.p2align	4, 0x90
_ZN3std6thread5local17LocalKey$LT$T$GT$4with17hc23d6ec4d4bfbbbeE:
.seh_proc _ZN3std6thread5local17LocalKey$LT$T$GT$4with17hc23d6ec4d4bfbbbeE
	subq	$72, %rsp
	.seh_stackalloc 72
	.seh_endprologue
	movq	%rcx, %rdx
	leaq	48(%rsp), %rcx
	callq	_ZN3std6thread5local17LocalKey$LT$T$GT$8try_with17h2d8f03caa3d5b5d2E
	leaq	48(%rsp), %rcx
	leaq	__unnamed_3(%rip), %rdx
	movl	$70, %r8d
	leaq	__unnamed_4(%rip), %r9
	callq	_ZN4core6result19Result$LT$T$C$E$GT$6expect17h2d2ff7d499e00810E
	movq	%rax, 32(%rsp)
	movq	%rdx, 40(%rsp)
	movq	40(%rsp), %rdx
	movq	32(%rsp), %rax
	addq	$72, %rsp
	retq
	.seh_endproc

	.def	_ZN3std6thread5local17LocalKey$LT$T$GT$8try_with17h2d8f03caa3d5b5d2E;
	.scl	3;
	.type	32;
	.endef
	.section	.text,"xr",one_only,_ZN3std6thread5local17LocalKey$LT$T$GT$8try_with17h2d8f03caa3d5b5d2E
	.p2align	4, 0x90
_ZN3std6thread5local17LocalKey$LT$T$GT$8try_with17h2d8f03caa3d5b5d2E:
.Lfunc_begin1:
.seh_proc _ZN3std6thread5local17LocalKey$LT$T$GT$8try_with17h2d8f03caa3d5b5d2E
	.seh_handler __CxxFrameHandler3, @unwind, @except
	pushq	%rbp
	.seh_pushreg %rbp
	subq	$128, %rsp
	.seh_stackalloc 128
	leaq	128(%rsp), %rbp
	.seh_setframe %rbp, 128
	.seh_endprologue
	movq	$-2, -8(%rbp)
	movq	%rcx, -64(%rbp)
	movq	%rcx, -56(%rbp)
	movb	$1, -9(%rbp)
	movq	(%rdx), %rax
	movq	$0, -32(%rbp)
	movq	-32(%rbp), %rcx
.Ltmp2:
	callq	*%rax
.Ltmp3:
	movq	%rax, -48(%rbp)
	jmp	.LBB20_2
.LBB20_2:
.Ltmp4:
	movq	-48(%rbp), %rcx
	callq	_ZN4core6option15Option$LT$T$GT$5ok_or17h91438de1224863eeE
.Ltmp5:
	movq	%rax, -72(%rbp)
	jmp	.LBB20_3
.LBB20_3:
.Ltmp6:
	movq	-72(%rbp), %rcx
	callq	_ZN79_$LT$core..result..Result$LT$T$C$E$GT$$u20$as$u20$core..ops..try_trait..Try$GT$6branch17h04bca0fe653e0294E
.Ltmp7:
	movq	%rax, -80(%rbp)
	jmp	.LBB20_4
.LBB20_4:
	movq	-80(%rbp), %rax
	movq	%rax, -40(%rbp)
	movq	-40(%rbp), %rax
	testq	%rax, %rax
	sete	%al
	movzbl	%al, %eax
	jne	.LBB20_6
	jmp	.LBB20_13
.LBB20_13:
	jmp	.LBB20_7
	ud2
.LBB20_6:
	movq	-40(%rbp), %rax
	movb	$0, -9(%rbp)
	movq	%rax, -24(%rbp)
	movq	-24(%rbp), %rcx
.Ltmp10:
	callq	_ZN3std11collections4hash3map11RandomState3new28_$u7b$$u7b$closure$u7d$$u7d$17h5c8c66777057aed5E
.Ltmp11:
	movq	%rdx, -96(%rbp)
	movq	%rax, -88(%rbp)
	jmp	.LBB20_10
.LBB20_7:
.Ltmp8:
	movq	-64(%rbp), %rcx
	leaq	__unnamed_5(%rip), %rdx
	callq	_ZN153_$LT$core..result..Result$LT$T$C$F$GT$$u20$as$u20$core..ops..try_trait..FromResidual$LT$core..result..Result$LT$core..convert..Infallible$C$E$GT$$GT$$GT$13from_residual17hb187dfd94fb4dc5eE
.Ltmp9:
	jmp	.LBB20_8
.LBB20_8:
	jmp	.LBB20_9
.LBB20_9:
	movq	-56(%rbp), %rax
	addq	$128, %rsp
	popq	%rbp
	retq
.LBB20_10:
	movq	-64(%rbp), %rax
	movq	-96(%rbp), %rcx
	movq	-88(%rbp), %rdx
	movq	%rdx, 8(%rax)
	movq	%rcx, 16(%rax)
	movq	$0, (%rax)
	jmp	.LBB20_9
	.seh_handlerdata
	.long	($cppxdata$_ZN3std6thread5local17LocalKey$LT$T$GT$8try_with17h2d8f03caa3d5b5d2E)@IMGREL
	.section	.text,"xr",one_only,_ZN3std6thread5local17LocalKey$LT$T$GT$8try_with17h2d8f03caa3d5b5d2E
	.seh_endproc
	.def	"?dtor$1@?0?_ZN3std6thread5local17LocalKey$LT$T$GT$8try_with17h2d8f03caa3d5b5d2E@4HA";
	.scl	3;
	.type	32;
	.endef
	.p2align	4, 0x90
"?dtor$1@?0?_ZN3std6thread5local17LocalKey$LT$T$GT$8try_with17h2d8f03caa3d5b5d2E@4HA":
.seh_proc "?dtor$1@?0?_ZN3std6thread5local17LocalKey$LT$T$GT$8try_with17h2d8f03caa3d5b5d2E@4HA"
.LBB20_1:
	movq	%rdx, 16(%rsp)
	pushq	%rbp
	.seh_pushreg %rbp
	subq	$32, %rsp
	.seh_stackalloc 32
	leaq	128(%rdx), %rbp
	.seh_endprologue
	testb	$1, -9(%rbp)
	jne	.LBB20_12
	jmp	.LBB20_11
.LBB20_11:
	addq	$32, %rsp
	popq	%rbp
	retq
.LBB20_12:
	jmp	.LBB20_11
.Lfunc_end1:
	.seh_handlerdata
	.section	.text,"xr",one_only,_ZN3std6thread5local17LocalKey$LT$T$GT$8try_with17h2d8f03caa3d5b5d2E
	.seh_endproc
	.section	.xdata,"dr",associative,_ZN3std6thread5local17LocalKey$LT$T$GT$8try_with17h2d8f03caa3d5b5d2E
	.p2align	2
$cppxdata$_ZN3std6thread5local17LocalKey$LT$T$GT$8try_with17h2d8f03caa3d5b5d2E:
	.long	429065506
	.long	1
	.long	($stateUnwindMap$_ZN3std6thread5local17LocalKey$LT$T$GT$8try_with17h2d8f03caa3d5b5d2E)@IMGREL
	.long	0
	.long	0
	.long	3
	.long	($ip2state$_ZN3std6thread5local17LocalKey$LT$T$GT$8try_with17h2d8f03caa3d5b5d2E)@IMGREL
	.long	120
	.long	0
	.long	1
$stateUnwindMap$_ZN3std6thread5local17LocalKey$LT$T$GT$8try_with17h2d8f03caa3d5b5d2E:
	.long	-1
	.long	"?dtor$1@?0?_ZN3std6thread5local17LocalKey$LT$T$GT$8try_with17h2d8f03caa3d5b5d2E@4HA"@IMGREL
$ip2state$_ZN3std6thread5local17LocalKey$LT$T$GT$8try_with17h2d8f03caa3d5b5d2E:
	.long	.Lfunc_begin1@IMGREL
	.long	-1
	.long	.Ltmp2@IMGREL+1
	.long	0
	.long	.Ltmp9@IMGREL+1
	.long	-1
	.section	.text,"xr",one_only,_ZN3std6thread5local17LocalKey$LT$T$GT$8try_with17h2d8f03caa3d5b5d2E

	.def	_ZN3std7process8ExitCode6to_i3217h2686d64f2b0d35a2E;
	.scl	3;
	.type	32;
	.endef
	.section	.text,"xr",one_only,_ZN3std7process8ExitCode6to_i3217h2686d64f2b0d35a2E
	.p2align	4, 0x90
_ZN3std7process8ExitCode6to_i3217h2686d64f2b0d35a2E:
.seh_proc _ZN3std7process8ExitCode6to_i3217h2686d64f2b0d35a2E
	subq	$40, %rsp
	.seh_stackalloc 40
	.seh_endprologue
	movl	%ecx, 36(%rsp)
	leaq	36(%rsp), %rcx
	callq	_ZN3std3sys7windows7process8ExitCode6as_i3217h1ea1abdafb085cdaE
	movl	%eax, 32(%rsp)
	movl	32(%rsp), %eax
	addq	$40, %rsp
	retq
	.seh_endproc

	.def	_ZN47_$LT$i64$u20$as$u20$core..iter..range..Step$GT$17forward_unchecked17hfc47baf32ab840b6E;
	.scl	3;
	.type	32;
	.endef
	.section	.text,"xr",one_only,_ZN47_$LT$i64$u20$as$u20$core..iter..range..Step$GT$17forward_unchecked17hfc47baf32ab840b6E
	.p2align	4, 0x90
_ZN47_$LT$i64$u20$as$u20$core..iter..range..Step$GT$17forward_unchecked17hfc47baf32ab840b6E:
.seh_proc _ZN47_$LT$i64$u20$as$u20$core..iter..range..Step$GT$17forward_unchecked17hfc47baf32ab840b6E
	subq	$16, %rsp
	.seh_stackalloc 16
	.seh_endprologue
	addq	%rdx, %rcx
	movq	%rcx, 8(%rsp)
	movq	8(%rsp), %rax
	movq	%rax, (%rsp)
	movq	(%rsp), %rax
	addq	$16, %rsp
	retq
	.seh_endproc

	.def	_ZN4core10intrinsics11write_bytes17hab2446c47c814e83E;
	.scl	3;
	.type	32;
	.endef
	.section	.text,"xr",one_only,_ZN4core10intrinsics11write_bytes17hab2446c47c814e83E
	.p2align	4, 0x90
_ZN4core10intrinsics11write_bytes17hab2446c47c814e83E:
.seh_proc _ZN4core10intrinsics11write_bytes17hab2446c47c814e83E
	subq	$40, %rsp
	.seh_stackalloc 40
	.seh_endprologue
	shlq	$0, %r8
	callq	memset
	nop
	addq	$40, %rsp
	retq
	.seh_endproc

	.def	_ZN4core10intrinsics19copy_nonoverlapping17h9d62a5def6469a49E;
	.scl	3;
	.type	32;
	.endef
	.section	.text,"xr",one_only,_ZN4core10intrinsics19copy_nonoverlapping17h9d62a5def6469a49E
	.p2align	4, 0x90
_ZN4core10intrinsics19copy_nonoverlapping17h9d62a5def6469a49E:
.seh_proc _ZN4core10intrinsics19copy_nonoverlapping17h9d62a5def6469a49E
	subq	$72, %rsp
	.seh_stackalloc 72
	.seh_endprologue
	movq	%rdx, 40(%rsp)
	movq	%rcx, %rdx
	movq	40(%rsp), %rcx
	shlq	$0, %r8
	callq	memcpy
	nop
	addq	$72, %rsp
	retq
	.seh_endproc

	.def	_ZN4core3cmp3Ord3max17h21f17ac6ae1f4ee4E;
	.scl	3;
	.type	32;
	.endef
	.section	.text,"xr",one_only,_ZN4core3cmp3Ord3max17h21f17ac6ae1f4ee4E
	.p2align	4, 0x90
_ZN4core3cmp3Ord3max17h21f17ac6ae1f4ee4E:
.seh_proc _ZN4core3cmp3Ord3max17h21f17ac6ae1f4ee4E
	subq	$40, %rsp
	.seh_stackalloc 40
	.seh_endprologue
	callq	_ZN4core3cmp6max_by17h62040e66307903a2E
	movq	%rax, 32(%rsp)
	movq	32(%rsp), %rax
	addq	$40, %rsp
	retq
	.seh_endproc

	.def	_ZN4core3cmp3max17heed4b40a2924b796E;
	.scl	3;
	.type	32;
	.endef
	.section	.text,"xr",one_only,_ZN4core3cmp3max17heed4b40a2924b796E
	.p2align	4, 0x90
_ZN4core3cmp3max17heed4b40a2924b796E:
.seh_proc _ZN4core3cmp3max17heed4b40a2924b796E
	subq	$40, %rsp
	.seh_stackalloc 40
	.seh_endprologue
	callq	_ZN4core3cmp3Ord3max17h21f17ac6ae1f4ee4E
	movq	%rax, 32(%rsp)
	movq	32(%rsp), %rax
	addq	$40, %rsp
	retq
	.seh_endproc

	.def	_ZN4core3cmp5impls50_$LT$impl$u20$core..cmp..Ord$u20$for$u20$usize$GT$3cmp17h11691b0332183626E;
	.scl	3;
	.type	32;
	.endef
	.section	.text,"xr",one_only,_ZN4core3cmp5impls50_$LT$impl$u20$core..cmp..Ord$u20$for$u20$usize$GT$3cmp17h11691b0332183626E
	.p2align	4, 0x90
_ZN4core3cmp5impls50_$LT$impl$u20$core..cmp..Ord$u20$for$u20$usize$GT$3cmp17h11691b0332183626E:
.seh_proc _ZN4core3cmp5impls50_$LT$impl$u20$core..cmp..Ord$u20$for$u20$usize$GT$3cmp17h11691b0332183626E
	subq	$24, %rsp
	.seh_stackalloc 24
	.seh_endprologue
	movq	%rdx, (%rsp)
	movq	%rcx, 8(%rsp)
	movq	(%rcx), %rax
	cmpq	(%rdx), %rax
	jb	.LBB27_2
	movq	(%rsp), %rcx
	movq	8(%rsp), %rax
	movq	(%rax), %rax
	cmpq	(%rcx), %rax
	je	.LBB27_5
	jmp	.LBB27_4
.LBB27_2:
	movb	$-1, 23(%rsp)
.LBB27_3:
	movb	23(%rsp), %al
	addq	$24, %rsp
	retq
.LBB27_4:
	movb	$1, 23(%rsp)
	jmp	.LBB27_6
.LBB27_5:
	movb	$0, 23(%rsp)
.LBB27_6:
	jmp	.LBB27_3
	.seh_endproc

	.def	_ZN4core3cmp5impls55_$LT$impl$u20$core..cmp..PartialOrd$u20$for$u20$i64$GT$2le17hcb2a4ebeac20b83bE;
	.scl	3;
	.type	32;
	.endef
	.section	.text,"xr",one_only,_ZN4core3cmp5impls55_$LT$impl$u20$core..cmp..PartialOrd$u20$for$u20$i64$GT$2le17hcb2a4ebeac20b83bE
	.p2align	4, 0x90
_ZN4core3cmp5impls55_$LT$impl$u20$core..cmp..PartialOrd$u20$for$u20$i64$GT$2le17hcb2a4ebeac20b83bE:
	movq	(%rcx), %rax
	cmpq	(%rdx), %rax
	setle	%al
	andb	$1, %al
	movzbl	%al, %eax
	retq

	.def	_ZN4core3cmp5impls55_$LT$impl$u20$core..cmp..PartialOrd$u20$for$u20$i64$GT$2lt17hcc325c169cf6b101E;
	.scl	3;
	.type	32;
	.endef
	.section	.text,"xr",one_only,_ZN4core3cmp5impls55_$LT$impl$u20$core..cmp..PartialOrd$u20$for$u20$i64$GT$2lt17hcc325c169cf6b101E
	.p2align	4, 0x90
_ZN4core3cmp5impls55_$LT$impl$u20$core..cmp..PartialOrd$u20$for$u20$i64$GT$2lt17hcc325c169cf6b101E:
	movq	(%rcx), %rax
	cmpq	(%rdx), %rax
	setl	%al
	andb	$1, %al
	movzbl	%al, %eax
	retq

	.def	_ZN4core3cmp6max_by17h62040e66307903a2E;
	.scl	3;
	.type	32;
	.endef
	.section	.text,"xr",one_only,_ZN4core3cmp6max_by17h62040e66307903a2E
	.p2align	4, 0x90
_ZN4core3cmp6max_by17h62040e66307903a2E:
.Lfunc_begin2:
.seh_proc _ZN4core3cmp6max_by17h62040e66307903a2E
	.seh_handler __CxxFrameHandler3, @unwind, @except
	pushq	%rbp
	.seh_pushreg %rbp
	subq	$112, %rsp
	.seh_stackalloc 112
	leaq	112(%rsp), %rbp
	.seh_setframe %rbp, 112
	.seh_endprologue
	movq	$-2, -8(%rbp)
	movq	%rcx, -64(%rbp)
	movq	%rdx, -56(%rbp)
	movb	$1, -9(%rbp)
	movb	$1, -10(%rbp)
	leaq	-64(%rbp), %rax
	movq	%rax, -32(%rbp)
	leaq	-56(%rbp), %rax
	movq	%rax, -24(%rbp)
	movq	-32(%rbp), %rcx
	movq	-24(%rbp), %rdx
.Ltmp12:
	callq	_ZN4core3ops8function6FnOnce9call_once17h86cdbd5d9be92b79E
.Ltmp13:
	movb	%al, -65(%rbp)
	jmp	.LBB30_2
.LBB30_2:
	movb	-65(%rbp), %al
	movb	%al, -33(%rbp)
	movb	-33(%rbp), %al
	addb	$1, %al
	subb	$2, %al
	jb	.LBB30_5
	jmp	.LBB30_14
.LBB30_14:
	jmp	.LBB30_6
	ud2
.LBB30_5:
	movb	$0, -10(%rbp)
	movq	-56(%rbp), %rax
	movq	%rax, -48(%rbp)
	jmp	.LBB30_7
.LBB30_6:
	movb	$0, -9(%rbp)
	movq	-64(%rbp), %rax
	movq	%rax, -48(%rbp)
.LBB30_7:
	testb	$1, -10(%rbp)
	jne	.LBB30_9
.LBB30_8:
	testb	$1, -9(%rbp)
	jne	.LBB30_13
	jmp	.LBB30_12
.LBB30_9:
	jmp	.LBB30_8
.LBB30_12:
	movq	-48(%rbp), %rax
	addq	$112, %rsp
	popq	%rbp
	retq
.LBB30_13:
	jmp	.LBB30_12
	.seh_handlerdata
	.long	($cppxdata$_ZN4core3cmp6max_by17h62040e66307903a2E)@IMGREL
	.section	.text,"xr",one_only,_ZN4core3cmp6max_by17h62040e66307903a2E
	.seh_endproc
	.def	"?dtor$1@?0?_ZN4core3cmp6max_by17h62040e66307903a2E@4HA";
	.scl	3;
	.type	32;
	.endef
	.p2align	4, 0x90
"?dtor$1@?0?_ZN4core3cmp6max_by17h62040e66307903a2E@4HA":
.seh_proc "?dtor$1@?0?_ZN4core3cmp6max_by17h62040e66307903a2E@4HA"
.LBB30_1:
	movq	%rdx, 16(%rsp)
	pushq	%rbp
	.seh_pushreg %rbp
	subq	$32, %rsp
	.seh_stackalloc 32
	leaq	112(%rdx), %rbp
	.seh_endprologue
	addq	$32, %rsp
	popq	%rbp
	retq
	.seh_handlerdata
	.section	.text,"xr",one_only,_ZN4core3cmp6max_by17h62040e66307903a2E
	.seh_endproc
	.def	"?dtor$3@?0?_ZN4core3cmp6max_by17h62040e66307903a2E@4HA";
	.scl	3;
	.type	32;
	.endef
	.p2align	4, 0x90
"?dtor$3@?0?_ZN4core3cmp6max_by17h62040e66307903a2E@4HA":
.seh_proc "?dtor$3@?0?_ZN4core3cmp6max_by17h62040e66307903a2E@4HA"
.LBB30_3:
	movq	%rdx, 16(%rsp)
	pushq	%rbp
	.seh_pushreg %rbp
	subq	$32, %rsp
	.seh_stackalloc 32
	leaq	112(%rdx), %rbp
	.seh_endprologue
	testb	$1, -9(%rbp)
	jne	.LBB30_11
	jmp	.LBB30_10
.LBB30_10:
	addq	$32, %rsp
	popq	%rbp
	retq
.LBB30_11:
	jmp	.LBB30_10
.Lfunc_end2:
	.seh_handlerdata
	.section	.text,"xr",one_only,_ZN4core3cmp6max_by17h62040e66307903a2E
	.seh_endproc
	.section	.xdata,"dr",associative,_ZN4core3cmp6max_by17h62040e66307903a2E
	.p2align	2
$cppxdata$_ZN4core3cmp6max_by17h62040e66307903a2E:
	.long	429065506
	.long	2
	.long	($stateUnwindMap$_ZN4core3cmp6max_by17h62040e66307903a2E)@IMGREL
	.long	0
	.long	0
	.long	3
	.long	($ip2state$_ZN4core3cmp6max_by17h62040e66307903a2E)@IMGREL
	.long	104
	.long	0
	.long	1
$stateUnwindMap$_ZN4core3cmp6max_by17h62040e66307903a2E:
	.long	-1
	.long	"?dtor$3@?0?_ZN4core3cmp6max_by17h62040e66307903a2E@4HA"@IMGREL
	.long	0
	.long	"?dtor$1@?0?_ZN4core3cmp6max_by17h62040e66307903a2E@4HA"@IMGREL
$ip2state$_ZN4core3cmp6max_by17h62040e66307903a2E:
	.long	.Lfunc_begin2@IMGREL
	.long	-1
	.long	.Ltmp12@IMGREL+1
	.long	1
	.long	.Ltmp13@IMGREL+1
	.long	-1
	.section	.text,"xr",one_only,_ZN4core3cmp6max_by17h62040e66307903a2E

	.def	_ZN4core3fmt10ArgumentV111new_display17h1cf3081dde0f598eE;
	.scl	3;
	.type	32;
	.endef
	.section	.text,"xr",one_only,_ZN4core3fmt10ArgumentV111new_display17h1cf3081dde0f598eE
	.p2align	4, 0x90
_ZN4core3fmt10ArgumentV111new_display17h1cf3081dde0f598eE:
.seh_proc _ZN4core3fmt10ArgumentV111new_display17h1cf3081dde0f598eE
	subq	$56, %rsp
	.seh_stackalloc 56
	.seh_endprologue
	leaq	_ZN4core3fmt3num3imp52_$LT$impl$u20$core..fmt..Display$u20$for$u20$i64$GT$3fmt17h26cf6444a08ddb11E(%rip), %rdx
	callq	_ZN4core3fmt10ArgumentV13new17hb7e69d82f40356c0E
	movq	%rax, 40(%rsp)
	movq	%rdx, 48(%rsp)
	movq	48(%rsp), %rdx
	movq	40(%rsp), %rax
	addq	$56, %rsp
	retq
	.seh_endproc

	.def	_ZN4core3fmt10ArgumentV13new17h6cb75ca0fff8dfd7E;
	.scl	3;
	.type	32;
	.endef
	.section	.text,"xr",one_only,_ZN4core3fmt10ArgumentV13new17h6cb75ca0fff8dfd7E
	.p2align	4, 0x90
_ZN4core3fmt10ArgumentV13new17h6cb75ca0fff8dfd7E:
.seh_proc _ZN4core3fmt10ArgumentV13new17h6cb75ca0fff8dfd7E
	subq	$56, %rsp
	.seh_stackalloc 56
	.seh_endprologue
	movq	%rcx, 8(%rsp)
	movq	%rdx, 40(%rsp)
	movq	40(%rsp), %rax
	movq	%rax, 16(%rsp)
	movq	8(%rsp), %rax
	movq	%rax, 48(%rsp)
	movq	48(%rsp), %rax
	movq	%rax, (%rsp)
	movq	16(%rsp), %rax
	movq	(%rsp), %rcx
	movq	%rcx, 24(%rsp)
	movq	%rax, 32(%rsp)
	movq	24(%rsp), %rax
	movq	32(%rsp), %rdx
	addq	$56, %rsp
	retq
	.seh_endproc

	.def	_ZN4core3fmt10ArgumentV13new17hb7e69d82f40356c0E;
	.scl	3;
	.type	32;
	.endef
	.section	.text,"xr",one_only,_ZN4core3fmt10ArgumentV13new17hb7e69d82f40356c0E
	.p2align	4, 0x90
_ZN4core3fmt10ArgumentV13new17hb7e69d82f40356c0E:
.seh_proc _ZN4core3fmt10ArgumentV13new17hb7e69d82f40356c0E
	subq	$56, %rsp
	.seh_stackalloc 56
	.seh_endprologue
	movq	%rcx, 8(%rsp)
	movq	%rdx, 40(%rsp)
	movq	40(%rsp), %rax
	movq	%rax, 16(%rsp)
	movq	8(%rsp), %rax
	movq	%rax, 48(%rsp)
	movq	48(%rsp), %rax
	movq	%rax, (%rsp)
	movq	16(%rsp), %rax
	movq	(%rsp), %rcx
	movq	%rcx, 24(%rsp)
	movq	%rax, 32(%rsp)
	movq	24(%rsp), %rax
	movq	32(%rsp), %rdx
	addq	$56, %rsp
	retq
	.seh_endproc

	.def	_ZN4core3fmt10ArgumentV19new_debug17hfe97b4c88e78458dE;
	.scl	3;
	.type	32;
	.endef
	.section	.text,"xr",one_only,_ZN4core3fmt10ArgumentV19new_debug17hfe97b4c88e78458dE
	.p2align	4, 0x90
_ZN4core3fmt10ArgumentV19new_debug17hfe97b4c88e78458dE:
.seh_proc _ZN4core3fmt10ArgumentV19new_debug17hfe97b4c88e78458dE
	subq	$56, %rsp
	.seh_stackalloc 56
	.seh_endprologue
	leaq	_ZN57_$LT$core..time..Duration$u20$as$u20$core..fmt..Debug$GT$3fmt17h2cb8b727b2172d1dE(%rip), %rdx
	callq	_ZN4core3fmt10ArgumentV13new17h6cb75ca0fff8dfd7E
	movq	%rax, 40(%rsp)
	movq	%rdx, 48(%rsp)
	movq	48(%rsp), %rdx
	movq	40(%rsp), %rax
	addq	$56, %rsp
	retq
	.seh_endproc

	.def	_ZN4core3fmt9Arguments6new_v117h271eacacf96d9100E;
	.scl	3;
	.type	32;
	.endef
	.section	.text,"xr",one_only,_ZN4core3fmt9Arguments6new_v117h271eacacf96d9100E
	.p2align	4, 0x90
_ZN4core3fmt9Arguments6new_v117h271eacacf96d9100E:
.seh_proc _ZN4core3fmt9Arguments6new_v117h271eacacf96d9100E
	subq	$168, %rsp
	.seh_stackalloc 168
	.seh_endprologue
	movq	%r9, 48(%rsp)
	movq	%r8, 56(%rsp)
	movq	%rdx, 64(%rsp)
	movq	%rcx, 72(%rsp)
	movq	%rcx, 80(%rsp)
	movq	208(%rsp), %rax
	movq	%rax, 88(%rsp)
	cmpq	%rax, %r8
	jb	.LBB35_2
	movq	56(%rsp), %rax
	movq	88(%rsp), %rcx
	addq	$1, %rcx
	cmpq	%rcx, %rax
	seta	%al
	andb	$1, %al
	movb	%al, 103(%rsp)
	jmp	.LBB35_3
.LBB35_2:
	movb	$1, 103(%rsp)
.LBB35_3:
	testb	$1, 103(%rsp)
	jne	.LBB35_5
	movq	80(%rsp), %rax
	movq	72(%rsp), %rcx
	movq	88(%rsp), %rdx
	movq	48(%rsp), %r8
	movq	56(%rsp), %r9
	movq	64(%rsp), %r10
	movq	$0, 152(%rsp)
	movq	%r10, (%rcx)
	movq	%r9, 8(%rcx)
	movq	152(%rsp), %r10
	movq	160(%rsp), %r9
	movq	%r10, 16(%rcx)
	movq	%r9, 24(%rcx)
	movq	%r8, 32(%rcx)
	movq	%rdx, 40(%rcx)
	addq	$168, %rsp
	retq
.LBB35_5:
	leaq	104(%rsp), %rcx
	leaq	__unnamed_6(%rip), %rdx
	movl	$1, %r8d
	leaq	__unnamed_7(%rip), %r9
	xorl	%eax, %eax
	movq	$0, 32(%rsp)
	callq	_ZN4core3fmt9Arguments6new_v117h271eacacf96d9100E
	leaq	__unnamed_8(%rip), %rdx
	leaq	104(%rsp), %rcx
	callq	_ZN4core9panicking9panic_fmt17h7ea011bb8aff88ceE
	ud2
	.seh_endproc

	.def	_ZN4core3mem10needs_drop17h5f84a2c909d8aeb9E;
	.scl	3;
	.type	32;
	.endef
	.section	.text,"xr",one_only,_ZN4core3mem10needs_drop17h5f84a2c909d8aeb9E
	.p2align	4, 0x90
_ZN4core3mem10needs_drop17h5f84a2c909d8aeb9E:
.seh_proc _ZN4core3mem10needs_drop17h5f84a2c909d8aeb9E
	pushq	%rax
	.seh_stackalloc 8
	.seh_endprologue
	movb	$0, 7(%rsp)
	movb	7(%rsp), %al
	movb	%al, 6(%rsp)
	movb	6(%rsp), %al
	andb	$1, %al
	movzbl	%al, %eax
	popq	%rcx
	retq
	.seh_endproc

	.def	_ZN4core3mem11valid_align10ValidAlign10as_nonzero17ha0bc63e4f8436754E;
	.scl	3;
	.type	32;
	.endef
	.section	.text,"xr",one_only,_ZN4core3mem11valid_align10ValidAlign10as_nonzero17ha0bc63e4f8436754E
	.p2align	4, 0x90
_ZN4core3mem11valid_align10ValidAlign10as_nonzero17ha0bc63e4f8436754E:
.seh_proc _ZN4core3mem11valid_align10ValidAlign10as_nonzero17ha0bc63e4f8436754E
	subq	$40, %rsp
	.seh_stackalloc 40
	.seh_endprologue
	callq	_ZN4core3num7nonzero12NonZeroUsize13new_unchecked17hc7f98fd66b6a3159E
	movq	%rax, 32(%rsp)
	movq	32(%rsp), %rax
	addq	$40, %rsp
	retq
	.seh_endproc

	.def	_ZN4core3mem11valid_align10ValidAlign13new_unchecked17hded3327bd759a8b3E;
	.scl	3;
	.type	32;
	.endef
	.section	.text,"xr",one_only,_ZN4core3mem11valid_align10ValidAlign13new_unchecked17hded3327bd759a8b3E
	.p2align	4, 0x90
_ZN4core3mem11valid_align10ValidAlign13new_unchecked17hded3327bd759a8b3E:
.seh_proc _ZN4core3mem11valid_align10ValidAlign13new_unchecked17hded3327bd759a8b3E
	subq	$16, %rsp
	.seh_stackalloc 16
	.seh_endprologue
	movq	%rcx, 8(%rsp)
	movq	8(%rsp), %rax
	movq	%rax, (%rsp)
	movq	(%rsp), %rax
	addq	$16, %rsp
	retq
	.seh_endproc

	.def	_ZN4core3mem4drop17h5ca8810a1e77055dE;
	.scl	3;
	.type	32;
	.endef
	.section	.text,"xr",one_only,_ZN4core3mem4drop17h5ca8810a1e77055dE
	.p2align	4, 0x90
_ZN4core3mem4drop17h5ca8810a1e77055dE:
	jmp	.LBB39_1
.LBB39_1:
	retq

	.def	_ZN4core3mem7replace17he36cdec84fec6bc8E;
	.scl	3;
	.type	32;
	.endef
	.section	.text,"xr",one_only,_ZN4core3mem7replace17he36cdec84fec6bc8E
	.p2align	4, 0x90
_ZN4core3mem7replace17he36cdec84fec6bc8E:
.Lfunc_begin3:
.seh_proc _ZN4core3mem7replace17he36cdec84fec6bc8E
	.seh_handler __CxxFrameHandler3, @unwind, @except
	pushq	%rbp
	.seh_pushreg %rbp
	subq	$96, %rsp
	.seh_stackalloc 96
	leaq	96(%rsp), %rbp
	.seh_setframe %rbp, 96
	.seh_endprologue
	movq	$-2, -8(%rbp)
	movq	%r8, -56(%rbp)
	movq	%rdx, -48(%rbp)
	movq	%rcx, -40(%rbp)
	movb	$1, -9(%rbp)
.Ltmp14:
	callq	_ZN4core3ptr4read17h1ee239238cc09d1cE
.Ltmp15:
	movq	%rdx, -32(%rbp)
	movq	%rax, -24(%rbp)
	jmp	.LBB40_2
.LBB40_2:
	movq	-56(%rbp), %r8
	movq	-48(%rbp), %rdx
	movq	-40(%rbp), %rcx
	movb	$0, -9(%rbp)
.Ltmp16:
	callq	_ZN4core3ptr5write17h2e97323225601418E
.Ltmp17:
	jmp	.LBB40_4
.LBB40_4:
	movq	-32(%rbp), %rdx
	movq	-24(%rbp), %rax
	addq	$96, %rsp
	popq	%rbp
	retq
	.seh_handlerdata
	.long	($cppxdata$_ZN4core3mem7replace17he36cdec84fec6bc8E)@IMGREL
	.section	.text,"xr",one_only,_ZN4core3mem7replace17he36cdec84fec6bc8E
	.seh_endproc
	.def	"?dtor$1@?0?_ZN4core3mem7replace17he36cdec84fec6bc8E@4HA";
	.scl	3;
	.type	32;
	.endef
	.p2align	4, 0x90
"?dtor$1@?0?_ZN4core3mem7replace17he36cdec84fec6bc8E@4HA":
.seh_proc "?dtor$1@?0?_ZN4core3mem7replace17he36cdec84fec6bc8E@4HA"
.LBB40_1:
	movq	%rdx, 16(%rsp)
	pushq	%rbp
	.seh_pushreg %rbp
	subq	$32, %rsp
	.seh_stackalloc 32
	leaq	96(%rdx), %rbp
	.seh_endprologue
	testb	$1, -9(%rbp)
	jne	.LBB40_6
	jmp	.LBB40_5
.LBB40_5:
	addq	$32, %rsp
	popq	%rbp
	retq
.LBB40_6:
	jmp	.LBB40_5
	.seh_handlerdata
	.section	.text,"xr",one_only,_ZN4core3mem7replace17he36cdec84fec6bc8E
	.seh_endproc
	.def	"?dtor$3@?0?_ZN4core3mem7replace17he36cdec84fec6bc8E@4HA";
	.scl	3;
	.type	32;
	.endef
	.p2align	4, 0x90
"?dtor$3@?0?_ZN4core3mem7replace17he36cdec84fec6bc8E@4HA":
.seh_proc "?dtor$3@?0?_ZN4core3mem7replace17he36cdec84fec6bc8E@4HA"
.LBB40_3:
	movq	%rdx, 16(%rsp)
	pushq	%rbp
	.seh_pushreg %rbp
	subq	$32, %rsp
	.seh_stackalloc 32
	leaq	96(%rdx), %rbp
	.seh_endprologue
	addq	$32, %rsp
	popq	%rbp
	retq
.Lfunc_end3:
	.seh_handlerdata
	.section	.text,"xr",one_only,_ZN4core3mem7replace17he36cdec84fec6bc8E
	.seh_endproc
	.section	.xdata,"dr",associative,_ZN4core3mem7replace17he36cdec84fec6bc8E
	.p2align	2
$cppxdata$_ZN4core3mem7replace17he36cdec84fec6bc8E:
	.long	429065506
	.long	2
	.long	($stateUnwindMap$_ZN4core3mem7replace17he36cdec84fec6bc8E)@IMGREL
	.long	0
	.long	0
	.long	4
	.long	($ip2state$_ZN4core3mem7replace17he36cdec84fec6bc8E)@IMGREL
	.long	88
	.long	0
	.long	1
$stateUnwindMap$_ZN4core3mem7replace17he36cdec84fec6bc8E:
	.long	-1
	.long	"?dtor$1@?0?_ZN4core3mem7replace17he36cdec84fec6bc8E@4HA"@IMGREL
	.long	0
	.long	"?dtor$3@?0?_ZN4core3mem7replace17he36cdec84fec6bc8E@4HA"@IMGREL
$ip2state$_ZN4core3mem7replace17he36cdec84fec6bc8E:
	.long	.Lfunc_begin3@IMGREL
	.long	-1
	.long	.Ltmp14@IMGREL+1
	.long	0
	.long	.Ltmp16@IMGREL+1
	.long	1
	.long	.Ltmp17@IMGREL+1
	.long	-1
	.section	.text,"xr",one_only,_ZN4core3mem7replace17he36cdec84fec6bc8E

	.def	_ZN4core3mem7replace17heb9cf625fd8369bcE;
	.scl	3;
	.type	32;
	.endef
	.section	.text,"xr",one_only,_ZN4core3mem7replace17heb9cf625fd8369bcE
	.p2align	4, 0x90
_ZN4core3mem7replace17heb9cf625fd8369bcE:
.Lfunc_begin4:
.seh_proc _ZN4core3mem7replace17heb9cf625fd8369bcE
	.seh_handler __CxxFrameHandler3, @unwind, @except
	pushq	%rbp
	.seh_pushreg %rbp
	subq	$80, %rsp
	.seh_stackalloc 80
	leaq	80(%rsp), %rbp
	.seh_setframe %rbp, 80
	.seh_endprologue
	movq	$-2, -8(%rbp)
	movq	%rdx, -40(%rbp)
	movq	%rcx, -32(%rbp)
	movb	$1, -9(%rbp)
.Ltmp18:
	callq	_ZN4core3ptr4read17h6becdbdd4eb1aa35E
.Ltmp19:
	movq	%rax, -24(%rbp)
	jmp	.LBB41_2
.LBB41_2:
	movq	-40(%rbp), %rdx
	movq	-32(%rbp), %rcx
	movb	$0, -9(%rbp)
.Ltmp20:
	callq	_ZN4core3ptr5write17hdf01ae00e2d1add0E
.Ltmp21:
	jmp	.LBB41_4
.LBB41_4:
	movq	-24(%rbp), %rax
	addq	$80, %rsp
	popq	%rbp
	retq
	.seh_handlerdata
	.long	($cppxdata$_ZN4core3mem7replace17heb9cf625fd8369bcE)@IMGREL
	.section	.text,"xr",one_only,_ZN4core3mem7replace17heb9cf625fd8369bcE
	.seh_endproc
	.def	"?dtor$1@?0?_ZN4core3mem7replace17heb9cf625fd8369bcE@4HA";
	.scl	3;
	.type	32;
	.endef
	.p2align	4, 0x90
"?dtor$1@?0?_ZN4core3mem7replace17heb9cf625fd8369bcE@4HA":
.seh_proc "?dtor$1@?0?_ZN4core3mem7replace17heb9cf625fd8369bcE@4HA"
.LBB41_1:
	movq	%rdx, 16(%rsp)
	pushq	%rbp
	.seh_pushreg %rbp
	subq	$32, %rsp
	.seh_stackalloc 32
	leaq	80(%rdx), %rbp
	.seh_endprologue
	testb	$1, -9(%rbp)
	jne	.LBB41_6
	jmp	.LBB41_5
.LBB41_5:
	addq	$32, %rsp
	popq	%rbp
	retq
.LBB41_6:
	jmp	.LBB41_5
	.seh_handlerdata
	.section	.text,"xr",one_only,_ZN4core3mem7replace17heb9cf625fd8369bcE
	.seh_endproc
	.def	"?dtor$3@?0?_ZN4core3mem7replace17heb9cf625fd8369bcE@4HA";
	.scl	3;
	.type	32;
	.endef
	.p2align	4, 0x90
"?dtor$3@?0?_ZN4core3mem7replace17heb9cf625fd8369bcE@4HA":
.seh_proc "?dtor$3@?0?_ZN4core3mem7replace17heb9cf625fd8369bcE@4HA"
.LBB41_3:
	movq	%rdx, 16(%rsp)
	pushq	%rbp
	.seh_pushreg %rbp
	subq	$32, %rsp
	.seh_stackalloc 32
	leaq	80(%rdx), %rbp
	.seh_endprologue
	addq	$32, %rsp
	popq	%rbp
	retq
.Lfunc_end4:
	.seh_handlerdata
	.section	.text,"xr",one_only,_ZN4core3mem7replace17heb9cf625fd8369bcE
	.seh_endproc
	.section	.xdata,"dr",associative,_ZN4core3mem7replace17heb9cf625fd8369bcE
	.p2align	2
$cppxdata$_ZN4core3mem7replace17heb9cf625fd8369bcE:
	.long	429065506
	.long	2
	.long	($stateUnwindMap$_ZN4core3mem7replace17heb9cf625fd8369bcE)@IMGREL
	.long	0
	.long	0
	.long	4
	.long	($ip2state$_ZN4core3mem7replace17heb9cf625fd8369bcE)@IMGREL
	.long	72
	.long	0
	.long	1
$stateUnwindMap$_ZN4core3mem7replace17heb9cf625fd8369bcE:
	.long	-1
	.long	"?dtor$1@?0?_ZN4core3mem7replace17heb9cf625fd8369bcE@4HA"@IMGREL
	.long	0
	.long	"?dtor$3@?0?_ZN4core3mem7replace17heb9cf625fd8369bcE@4HA"@IMGREL
$ip2state$_ZN4core3mem7replace17heb9cf625fd8369bcE:
	.long	.Lfunc_begin4@IMGREL
	.long	-1
	.long	.Ltmp18@IMGREL+1
	.long	0
	.long	.Ltmp20@IMGREL+1
	.long	1
	.long	.Ltmp21@IMGREL+1
	.long	-1
	.section	.text,"xr",one_only,_ZN4core3mem7replace17heb9cf625fd8369bcE

	.def	_ZN4core3num23_$LT$impl$u20$usize$GT$11checked_add17h1f8af730e989889fE;
	.scl	3;
	.type	32;
	.endef
	.section	.text,"xr",one_only,_ZN4core3num23_$LT$impl$u20$usize$GT$11checked_add17h1f8af730e989889fE
	.p2align	4, 0x90
_ZN4core3num23_$LT$impl$u20$usize$GT$11checked_add17h1f8af730e989889fE:
.seh_proc _ZN4core3num23_$LT$impl$u20$usize$GT$11checked_add17h1f8af730e989889fE
	subq	$80, %rsp
	.seh_stackalloc 80
	.seh_endprologue
	addq	%rdx, %rcx
	movq	%rcx, 64(%rsp)
	setb	72(%rsp)
	movq	64(%rsp), %rcx
	movb	72(%rsp), %al
	movq	%rcx, 48(%rsp)
	movb	%al, 56(%rsp)
	movq	48(%rsp), %rax
	movq	%rax, 8(%rsp)
	movb	56(%rsp), %al
	movb	%al, 23(%rsp)
	movb	23(%rsp), %al
	andb	$1, %al
	movb	%al, 47(%rsp)
	movb	47(%rsp), %al
	movb	%al, 7(%rsp)
	movb	7(%rsp), %al
	testb	$1, %al
	jne	.LBB42_4
	jmp	.LBB42_3
.LBB42_3:
	movq	8(%rsp), %rax
	movq	%rax, 32(%rsp)
	movq	$1, 24(%rsp)
	jmp	.LBB42_5
.LBB42_4:
	movq	$0, 24(%rsp)
.LBB42_5:
	movq	24(%rsp), %rax
	movq	32(%rsp), %rdx
	addq	$80, %rsp
	retq
	.seh_endproc

	.def	_ZN4core3num23_$LT$impl$u20$usize$GT$11checked_mul17h26c089d383fbc173E;
	.scl	3;
	.type	32;
	.endef
	.section	.text,"xr",one_only,_ZN4core3num23_$LT$impl$u20$usize$GT$11checked_mul17h26c089d383fbc173E
	.p2align	4, 0x90
_ZN4core3num23_$LT$impl$u20$usize$GT$11checked_mul17h26c089d383fbc173E:
.seh_proc _ZN4core3num23_$LT$impl$u20$usize$GT$11checked_mul17h26c089d383fbc173E
	subq	$80, %rsp
	.seh_stackalloc 80
	.seh_endprologue
	movq	%rcx, %rax
	mulq	%rdx
	movq	%rax, 64(%rsp)
	seto	72(%rsp)
	movq	64(%rsp), %rcx
	movb	72(%rsp), %al
	movq	%rcx, 48(%rsp)
	movb	%al, 56(%rsp)
	movq	48(%rsp), %rax
	movq	%rax, 8(%rsp)
	movb	56(%rsp), %al
	movb	%al, 23(%rsp)
	movb	23(%rsp), %al
	andb	$1, %al
	movb	%al, 47(%rsp)
	movb	47(%rsp), %al
	movb	%al, 7(%rsp)
	movb	7(%rsp), %al
	testb	$1, %al
	jne	.LBB43_4
	jmp	.LBB43_3
.LBB43_3:
	movq	8(%rsp), %rax
	movq	%rax, 32(%rsp)
	movq	$1, 24(%rsp)
	jmp	.LBB43_5
.LBB43_4:
	movq	$0, 24(%rsp)
.LBB43_5:
	movq	24(%rsp), %rax
	movq	32(%rsp), %rdx
	addq	$80, %rsp
	retq
	.seh_endproc

	.def	_ZN4core3num7nonzero12NonZeroUsize13new_unchecked17hc7f98fd66b6a3159E;
	.scl	3;
	.type	32;
	.endef
	.section	.text,"xr",one_only,_ZN4core3num7nonzero12NonZeroUsize13new_unchecked17hc7f98fd66b6a3159E
	.p2align	4, 0x90
_ZN4core3num7nonzero12NonZeroUsize13new_unchecked17hc7f98fd66b6a3159E:
.seh_proc _ZN4core3num7nonzero12NonZeroUsize13new_unchecked17hc7f98fd66b6a3159E
	pushq	%rax
	.seh_stackalloc 8
	.seh_endprologue
	movq	%rcx, (%rsp)
	movq	(%rsp), %rax
	popq	%rcx
	retq
	.seh_endproc

	.def	_ZN4core3num7nonzero12NonZeroUsize3get17h953dc2f7f6c6b630E;
	.scl	3;
	.type	32;
	.endef
	.section	.text,"xr",one_only,_ZN4core3num7nonzero12NonZeroUsize3get17h953dc2f7f6c6b630E
	.p2align	4, 0x90
_ZN4core3num7nonzero12NonZeroUsize3get17h953dc2f7f6c6b630E:
	movq	%rcx, %rax
	retq

	.def	_ZN4core3ops5range25RangeInclusive$LT$Idx$GT$3new17ha3308f4d48535766E;
	.scl	3;
	.type	32;
	.endef
	.section	.text,"xr",one_only,_ZN4core3ops5range25RangeInclusive$LT$Idx$GT$3new17ha3308f4d48535766E
	.p2align	4, 0x90
_ZN4core3ops5range25RangeInclusive$LT$Idx$GT$3new17ha3308f4d48535766E:
	movq	%rcx, %rax
	movq	%rdx, (%rcx)
	movq	%r8, 8(%rcx)
	movb	$0, 16(%rcx)
	retq

	.def	_ZN4core3ops5range25RangeInclusive$LT$Idx$GT$8is_empty17hec880072ece6dadaE;
	.scl	3;
	.type	32;
	.endef
	.section	.text,"xr",one_only,_ZN4core3ops5range25RangeInclusive$LT$Idx$GT$8is_empty17hec880072ece6dadaE
	.p2align	4, 0x90
_ZN4core3ops5range25RangeInclusive$LT$Idx$GT$8is_empty17hec880072ece6dadaE:
.seh_proc _ZN4core3ops5range25RangeInclusive$LT$Idx$GT$8is_empty17hec880072ece6dadaE
	subq	$56, %rsp
	.seh_stackalloc 56
	.seh_endprologue
	movq	%rcx, 40(%rsp)
	testb	$1, 16(%rcx)
	jne	.LBB47_2
	movq	40(%rsp), %rdx
	movq	%rdx, %rcx
	addq	$8, %rdx
	callq	_ZN4core3cmp5impls55_$LT$impl$u20$core..cmp..PartialOrd$u20$for$u20$i64$GT$2le17hcb2a4ebeac20b83bE
	movb	%al, 39(%rsp)
	jmp	.LBB47_4
.LBB47_2:
	movb	$1, 55(%rsp)
.LBB47_3:
	movb	55(%rsp), %al
	andb	$1, %al
	movzbl	%al, %eax
	addq	$56, %rsp
	retq
.LBB47_4:
	movb	39(%rsp), %al
	xorb	$-1, %al
	andb	$1, %al
	movb	%al, 55(%rsp)
	jmp	.LBB47_3
	.seh_endproc

	.def	_ZN4core3ops8function6FnOnce40call_once$u7b$$u7b$vtable.shim$u7d$$u7d$17h262064219a5d176eE;
	.scl	3;
	.type	32;
	.endef
	.section	.text,"xr",one_only,_ZN4core3ops8function6FnOnce40call_once$u7b$$u7b$vtable.shim$u7d$$u7d$17h262064219a5d176eE
	.p2align	4, 0x90
_ZN4core3ops8function6FnOnce40call_once$u7b$$u7b$vtable.shim$u7d$$u7d$17h262064219a5d176eE:
.seh_proc _ZN4core3ops8function6FnOnce40call_once$u7b$$u7b$vtable.shim$u7d$$u7d$17h262064219a5d176eE
	subq	$56, %rsp
	.seh_stackalloc 56
	.seh_endprologue
	movq	(%rcx), %rcx
	callq	_ZN4core3ops8function6FnOnce9call_once17h09a0d645ce20eb87E
	movl	%eax, 44(%rsp)
	movl	44(%rsp), %eax
	addq	$56, %rsp
	retq
	.seh_endproc

	.def	_ZN4core3ops8function6FnOnce9call_once17h09a0d645ce20eb87E;
	.scl	3;
	.type	32;
	.endef
	.section	.text,"xr",one_only,_ZN4core3ops8function6FnOnce9call_once17h09a0d645ce20eb87E
	.p2align	4, 0x90
_ZN4core3ops8function6FnOnce9call_once17h09a0d645ce20eb87E:
.Lfunc_begin5:
.seh_proc _ZN4core3ops8function6FnOnce9call_once17h09a0d645ce20eb87E
	.seh_handler __CxxFrameHandler3, @unwind, @except
	pushq	%rbp
	.seh_pushreg %rbp
	subq	$64, %rsp
	.seh_stackalloc 64
	leaq	64(%rsp), %rbp
	.seh_setframe %rbp, 64
	.seh_endprologue
	movq	$-2, -8(%rbp)
	movq	%rcx, -16(%rbp)
.Ltmp22:
	leaq	-16(%rbp), %rcx
	callq	_ZN3std2rt10lang_start28_$u7b$$u7b$closure$u7d$$u7d$17hb77117b5d731097eE
.Ltmp23:
	movl	%eax, -20(%rbp)
	jmp	.LBB49_2
.LBB49_2:
	movl	-20(%rbp), %eax
	addq	$64, %rsp
	popq	%rbp
	retq
	.seh_handlerdata
	.long	($cppxdata$_ZN4core3ops8function6FnOnce9call_once17h09a0d645ce20eb87E)@IMGREL
	.section	.text,"xr",one_only,_ZN4core3ops8function6FnOnce9call_once17h09a0d645ce20eb87E
	.seh_endproc
	.def	"?dtor$1@?0?_ZN4core3ops8function6FnOnce9call_once17h09a0d645ce20eb87E@4HA";
	.scl	3;
	.type	32;
	.endef
	.p2align	4, 0x90
"?dtor$1@?0?_ZN4core3ops8function6FnOnce9call_once17h09a0d645ce20eb87E@4HA":
.seh_proc "?dtor$1@?0?_ZN4core3ops8function6FnOnce9call_once17h09a0d645ce20eb87E@4HA"
.LBB49_1:
	movq	%rdx, 16(%rsp)
	pushq	%rbp
	.seh_pushreg %rbp
	subq	$32, %rsp
	.seh_stackalloc 32
	leaq	64(%rdx), %rbp
	.seh_endprologue
	addq	$32, %rsp
	popq	%rbp
	retq
.Lfunc_end5:
	.seh_handlerdata
	.section	.text,"xr",one_only,_ZN4core3ops8function6FnOnce9call_once17h09a0d645ce20eb87E
	.seh_endproc
	.section	.xdata,"dr",associative,_ZN4core3ops8function6FnOnce9call_once17h09a0d645ce20eb87E
	.p2align	2
$cppxdata$_ZN4core3ops8function6FnOnce9call_once17h09a0d645ce20eb87E:
	.long	429065506
	.long	1
	.long	($stateUnwindMap$_ZN4core3ops8function6FnOnce9call_once17h09a0d645ce20eb87E)@IMGREL
	.long	0
	.long	0
	.long	3
	.long	($ip2state$_ZN4core3ops8function6FnOnce9call_once17h09a0d645ce20eb87E)@IMGREL
	.long	56
	.long	0
	.long	1
$stateUnwindMap$_ZN4core3ops8function6FnOnce9call_once17h09a0d645ce20eb87E:
	.long	-1
	.long	"?dtor$1@?0?_ZN4core3ops8function6FnOnce9call_once17h09a0d645ce20eb87E@4HA"@IMGREL
$ip2state$_ZN4core3ops8function6FnOnce9call_once17h09a0d645ce20eb87E:
	.long	.Lfunc_begin5@IMGREL
	.long	-1
	.long	.Ltmp22@IMGREL+1
	.long	0
	.long	.Ltmp23@IMGREL+1
	.long	-1
	.section	.text,"xr",one_only,_ZN4core3ops8function6FnOnce9call_once17h09a0d645ce20eb87E

	.def	_ZN4core3ops8function6FnOnce9call_once17h86cdbd5d9be92b79E;
	.scl	3;
	.type	32;
	.endef
	.section	.text,"xr",one_only,_ZN4core3ops8function6FnOnce9call_once17h86cdbd5d9be92b79E
	.p2align	4, 0x90
_ZN4core3ops8function6FnOnce9call_once17h86cdbd5d9be92b79E:
.seh_proc _ZN4core3ops8function6FnOnce9call_once17h86cdbd5d9be92b79E
	subq	$56, %rsp
	.seh_stackalloc 56
	.seh_endprologue
	movq	%rcx, 40(%rsp)
	movq	%rdx, 48(%rsp)
	movq	40(%rsp), %rcx
	movq	48(%rsp), %rdx
	callq	_ZN4core3cmp5impls50_$LT$impl$u20$core..cmp..Ord$u20$for$u20$usize$GT$3cmp17h11691b0332183626E
	movb	%al, 39(%rsp)
	movb	39(%rsp), %al
	addq	$56, %rsp
	retq
	.seh_endproc

	.def	_ZN4core3ops8function6FnOnce9call_once17ha51a7f21a841af17E;
	.scl	3;
	.type	32;
	.endef
	.section	.text,"xr",one_only,_ZN4core3ops8function6FnOnce9call_once17ha51a7f21a841af17E
	.p2align	4, 0x90
_ZN4core3ops8function6FnOnce9call_once17ha51a7f21a841af17E:
.seh_proc _ZN4core3ops8function6FnOnce9call_once17ha51a7f21a841af17E
	subq	$40, %rsp
	.seh_stackalloc 40
	.seh_endprologue
	callq	*%rcx
	nop
	addq	$40, %rsp
	retq
	.seh_endproc

	.def	_ZN4core3ptr109drop_in_place$LT$hashbrown..map..HashMap$LT$i32$C$$LP$$RP$$C$std..collections..hash..map..RandomState$GT$$GT$17h9e35758402cf3d35E;
	.scl	3;
	.type	32;
	.endef
	.section	.text,"xr",one_only,_ZN4core3ptr109drop_in_place$LT$hashbrown..map..HashMap$LT$i32$C$$LP$$RP$$C$std..collections..hash..map..RandomState$GT$$GT$17h9e35758402cf3d35E
	.p2align	4, 0x90
_ZN4core3ptr109drop_in_place$LT$hashbrown..map..HashMap$LT$i32$C$$LP$$RP$$C$std..collections..hash..map..RandomState$GT$$GT$17h9e35758402cf3d35E:
.seh_proc _ZN4core3ptr109drop_in_place$LT$hashbrown..map..HashMap$LT$i32$C$$LP$$RP$$C$std..collections..hash..map..RandomState$GT$$GT$17h9e35758402cf3d35E
	subq	$40, %rsp
	.seh_stackalloc 40
	.seh_endprologue
	addq	$16, %rcx
	callq	_ZN4core3ptr75drop_in_place$LT$hashbrown..raw..RawTable$LT$$LP$i32$C$$LP$$RP$$RP$$GT$$GT$17he44bd6c815f1024eE
	nop
	addq	$40, %rsp
	retq
	.seh_endproc

	.def	_ZN4core3ptr24slice_from_raw_parts_mut17h647484d7c669fcceE;
	.scl	3;
	.type	32;
	.endef
	.section	.text,"xr",one_only,_ZN4core3ptr24slice_from_raw_parts_mut17h647484d7c669fcceE
	.p2align	4, 0x90
_ZN4core3ptr24slice_from_raw_parts_mut17h647484d7c669fcceE:
.seh_proc _ZN4core3ptr24slice_from_raw_parts_mut17h647484d7c669fcceE
	subq	$72, %rsp
	.seh_stackalloc 72
	.seh_endprologue
	movq	%rdx, 56(%rsp)
	movq	%rcx, 64(%rsp)
	movq	56(%rsp), %rdx
	movq	64(%rsp), %rcx
	callq	_ZN4core3ptr8metadata18from_raw_parts_mut17h428adc95d19e61cbE
	movq	%rax, 40(%rsp)
	movq	%rdx, 48(%rsp)
	movq	48(%rsp), %rdx
	movq	40(%rsp), %rax
	addq	$72, %rsp
	retq
	.seh_endproc

	.def	_ZN4core3ptr24slice_from_raw_parts_mut17h7122a121933caf3cE;
	.scl	3;
	.type	32;
	.endef
	.section	.text,"xr",one_only,_ZN4core3ptr24slice_from_raw_parts_mut17h7122a121933caf3cE
	.p2align	4, 0x90
_ZN4core3ptr24slice_from_raw_parts_mut17h7122a121933caf3cE:
.seh_proc _ZN4core3ptr24slice_from_raw_parts_mut17h7122a121933caf3cE
	subq	$72, %rsp
	.seh_stackalloc 72
	.seh_endprologue
	movq	%rdx, 56(%rsp)
	movq	%rcx, 64(%rsp)
	movq	56(%rsp), %rdx
	movq	64(%rsp), %rcx
	callq	_ZN4core3ptr8metadata18from_raw_parts_mut17h32cd1d430acdd1adE
	movq	%rax, 40(%rsp)
	movq	%rdx, 48(%rsp)
	movq	48(%rsp), %rdx
	movq	40(%rsp), %rax
	addq	$72, %rsp
	retq
	.seh_endproc

	.def	_ZN4core3ptr47drop_in_place$LT$alloc..vec..Vec$LT$i64$GT$$GT$17h66e82ff396974997E;
	.scl	3;
	.type	32;
	.endef
	.section	.text,"xr",one_only,_ZN4core3ptr47drop_in_place$LT$alloc..vec..Vec$LT$i64$GT$$GT$17h66e82ff396974997E
	.p2align	4, 0x90
_ZN4core3ptr47drop_in_place$LT$alloc..vec..Vec$LT$i64$GT$$GT$17h66e82ff396974997E:
.Lfunc_begin6:
.seh_proc _ZN4core3ptr47drop_in_place$LT$alloc..vec..Vec$LT$i64$GT$$GT$17h66e82ff396974997E
	.seh_handler __CxxFrameHandler3, @unwind, @except
	pushq	%rbp
	.seh_pushreg %rbp
	subq	$48, %rsp
	.seh_stackalloc 48
	leaq	48(%rsp), %rbp
	.seh_setframe %rbp, 48
	.seh_endprologue
	movq	$-2, -8(%rbp)
	movq	%rcx, -16(%rbp)
.Ltmp24:
	callq	_ZN70_$LT$alloc..vec..Vec$LT$T$C$A$GT$$u20$as$u20$core..ops..drop..Drop$GT$4drop17h290d955cdbd0c94fE
.Ltmp25:
	jmp	.LBB55_2
.LBB55_2:
	movq	-16(%rbp), %rcx
	callq	_ZN4core3ptr54drop_in_place$LT$alloc..raw_vec..RawVec$LT$i64$GT$$GT$17h84d641c57a5caa5cE
	nop
	addq	$48, %rsp
	popq	%rbp
	retq
	.seh_handlerdata
	.long	($cppxdata$_ZN4core3ptr47drop_in_place$LT$alloc..vec..Vec$LT$i64$GT$$GT$17h66e82ff396974997E)@IMGREL
	.section	.text,"xr",one_only,_ZN4core3ptr47drop_in_place$LT$alloc..vec..Vec$LT$i64$GT$$GT$17h66e82ff396974997E
	.seh_endproc
	.def	"?dtor$1@?0?_ZN4core3ptr47drop_in_place$LT$alloc..vec..Vec$LT$i64$GT$$GT$17h66e82ff396974997E@4HA";
	.scl	3;
	.type	32;
	.endef
	.p2align	4, 0x90
"?dtor$1@?0?_ZN4core3ptr47drop_in_place$LT$alloc..vec..Vec$LT$i64$GT$$GT$17h66e82ff396974997E@4HA":
.seh_proc "?dtor$1@?0?_ZN4core3ptr47drop_in_place$LT$alloc..vec..Vec$LT$i64$GT$$GT$17h66e82ff396974997E@4HA"
.LBB55_1:
	movq	%rdx, 16(%rsp)
	pushq	%rbp
	.seh_pushreg %rbp
	subq	$32, %rsp
	.seh_stackalloc 32
	leaq	48(%rdx), %rbp
	.seh_endprologue
	movq	-16(%rbp), %rcx
	callq	_ZN4core3ptr54drop_in_place$LT$alloc..raw_vec..RawVec$LT$i64$GT$$GT$17h84d641c57a5caa5cE
	nop
	addq	$32, %rsp
	popq	%rbp
	retq
.Lfunc_end6:
	.seh_handlerdata
	.section	.text,"xr",one_only,_ZN4core3ptr47drop_in_place$LT$alloc..vec..Vec$LT$i64$GT$$GT$17h66e82ff396974997E
	.seh_endproc
	.section	.xdata,"dr",associative,_ZN4core3ptr47drop_in_place$LT$alloc..vec..Vec$LT$i64$GT$$GT$17h66e82ff396974997E
	.p2align	2
$cppxdata$_ZN4core3ptr47drop_in_place$LT$alloc..vec..Vec$LT$i64$GT$$GT$17h66e82ff396974997E:
	.long	429065506
	.long	1
	.long	($stateUnwindMap$_ZN4core3ptr47drop_in_place$LT$alloc..vec..Vec$LT$i64$GT$$GT$17h66e82ff396974997E)@IMGREL
	.long	0
	.long	0
	.long	3
	.long	($ip2state$_ZN4core3ptr47drop_in_place$LT$alloc..vec..Vec$LT$i64$GT$$GT$17h66e82ff396974997E)@IMGREL
	.long	40
	.long	0
	.long	1
$stateUnwindMap$_ZN4core3ptr47drop_in_place$LT$alloc..vec..Vec$LT$i64$GT$$GT$17h66e82ff396974997E:
	.long	-1
	.long	"?dtor$1@?0?_ZN4core3ptr47drop_in_place$LT$alloc..vec..Vec$LT$i64$GT$$GT$17h66e82ff396974997E@4HA"@IMGREL
$ip2state$_ZN4core3ptr47drop_in_place$LT$alloc..vec..Vec$LT$i64$GT$$GT$17h66e82ff396974997E:
	.long	.Lfunc_begin6@IMGREL
	.long	-1
	.long	.Ltmp24@IMGREL+1
	.long	0
	.long	.Ltmp25@IMGREL+1
	.long	-1
	.section	.text,"xr",one_only,_ZN4core3ptr47drop_in_place$LT$alloc..vec..Vec$LT$i64$GT$$GT$17h66e82ff396974997E

	.def	_ZN4core3ptr4read17h1de47499c323879eE;
	.scl	3;
	.type	32;
	.endef
	.section	.text,"xr",one_only,_ZN4core3ptr4read17h1de47499c323879eE
	.p2align	4, 0x90
_ZN4core3ptr4read17h1de47499c323879eE:
.seh_proc _ZN4core3ptr4read17h1de47499c323879eE
	subq	$16, %rsp
	.seh_stackalloc 16
	.seh_endprologue
	movq	%rsp, %rax
	addq	$16, %rsp
	retq
	.seh_endproc

	.def	_ZN4core3ptr4read17h1ee239238cc09d1cE;
	.scl	3;
	.type	32;
	.endef
	.section	.text,"xr",one_only,_ZN4core3ptr4read17h1ee239238cc09d1cE
	.p2align	4, 0x90
_ZN4core3ptr4read17h1ee239238cc09d1cE:
.seh_proc _ZN4core3ptr4read17h1ee239238cc09d1cE
	subq	$72, %rsp
	.seh_stackalloc 72
	.seh_endprologue
	movq	%rcx, 24(%rsp)
	movq	56(%rsp), %rax
	movq	64(%rsp), %rcx
	movq	%rcx, 40(%rsp)
	movq	%rax, 32(%rsp)
	jmp	.LBB57_2
.LBB57_2:
	movq	24(%rsp), %rax
	movups	(%rax), %xmm0
	movaps	%xmm0, 32(%rsp)
	movq	32(%rsp), %rax
	movq	%rax, 8(%rsp)
	movq	40(%rsp), %rax
	movq	%rax, 16(%rsp)
	movq	16(%rsp), %rdx
	movq	8(%rsp), %rax
	addq	$72, %rsp
	retq
	.seh_endproc

	.def	_ZN4core3ptr4read17h6becdbdd4eb1aa35E;
	.scl	3;
	.type	32;
	.endef
	.section	.text,"xr",one_only,_ZN4core3ptr4read17h6becdbdd4eb1aa35E
	.p2align	4, 0x90
_ZN4core3ptr4read17h6becdbdd4eb1aa35E:
.seh_proc _ZN4core3ptr4read17h6becdbdd4eb1aa35E
	subq	$32, %rsp
	.seh_stackalloc 32
	.seh_endprologue
	movq	%rcx, 8(%rsp)
	movq	24(%rsp), %rax
	movq	%rax, 16(%rsp)
	jmp	.LBB58_2
.LBB58_2:
	movq	8(%rsp), %rax
	movq	(%rax), %rax
	movq	%rax, 16(%rsp)
	movq	16(%rsp), %rax
	movq	%rax, (%rsp)
	movq	(%rsp), %rax
	addq	$32, %rsp
	retq
	.seh_endproc

	.def	_ZN4core3ptr52drop_in_place$LT$std..thread..local..AccessError$GT$17h452cc50f331ccc0dE;
	.scl	3;
	.type	32;
	.endef
	.section	.text,"xr",one_only,_ZN4core3ptr52drop_in_place$LT$std..thread..local..AccessError$GT$17h452cc50f331ccc0dE
	.p2align	4, 0x90
_ZN4core3ptr52drop_in_place$LT$std..thread..local..AccessError$GT$17h452cc50f331ccc0dE:
	retq

	.def	_ZN4core3ptr54drop_in_place$LT$alloc..raw_vec..RawVec$LT$i64$GT$$GT$17h84d641c57a5caa5cE;
	.scl	3;
	.type	32;
	.endef
	.section	.text,"xr",one_only,_ZN4core3ptr54drop_in_place$LT$alloc..raw_vec..RawVec$LT$i64$GT$$GT$17h84d641c57a5caa5cE
	.p2align	4, 0x90
_ZN4core3ptr54drop_in_place$LT$alloc..raw_vec..RawVec$LT$i64$GT$$GT$17h84d641c57a5caa5cE:
.seh_proc _ZN4core3ptr54drop_in_place$LT$alloc..raw_vec..RawVec$LT$i64$GT$$GT$17h84d641c57a5caa5cE
	subq	$40, %rsp
	.seh_stackalloc 40
	.seh_endprologue
	callq	_ZN77_$LT$alloc..raw_vec..RawVec$LT$T$C$A$GT$$u20$as$u20$core..ops..drop..Drop$GT$4drop17he5f6db9f67df74faE
	nop
	addq	$40, %rsp
	retq
	.seh_endproc

	.def	_ZN4core3ptr59drop_in_place$LT$alloc..boxed..Box$LT$$u5b$i64$u5d$$GT$$GT$17h03c21dfb67ca94b3E;
	.scl	3;
	.type	32;
	.endef
	.section	.text,"xr",one_only,_ZN4core3ptr59drop_in_place$LT$alloc..boxed..Box$LT$$u5b$i64$u5d$$GT$$GT$17h03c21dfb67ca94b3E
	.p2align	4, 0x90
_ZN4core3ptr59drop_in_place$LT$alloc..boxed..Box$LT$$u5b$i64$u5d$$GT$$GT$17h03c21dfb67ca94b3E:
.seh_proc _ZN4core3ptr59drop_in_place$LT$alloc..boxed..Box$LT$$u5b$i64$u5d$$GT$$GT$17h03c21dfb67ca94b3E
	subq	$40, %rsp
	.seh_stackalloc 40
	.seh_endprologue
	movq	%rcx, %rax
	movq	(%rax), %rcx
	movq	8(%rax), %rdx
	callq	_ZN5alloc5alloc8box_free17h45d852b8dca07568E
	nop
	addq	$40, %rsp
	retq
	.seh_endproc

	.def	_ZN4core3ptr5write17h2e97323225601418E;
	.scl	3;
	.type	32;
	.endef
	.section	.text,"xr",one_only,_ZN4core3ptr5write17h2e97323225601418E
	.p2align	4, 0x90
_ZN4core3ptr5write17h2e97323225601418E:
.seh_proc _ZN4core3ptr5write17h2e97323225601418E
	subq	$16, %rsp
	.seh_stackalloc 16
	.seh_endprologue
	movq	%rdx, (%rsp)
	movq	%r8, 8(%rsp)
	movq	(%rsp), %rax
	movq	%rax, (%rcx)
	movq	8(%rsp), %rax
	movq	%rax, 8(%rcx)
	addq	$16, %rsp
	retq
	.seh_endproc

	.def	_ZN4core3ptr5write17hdf01ae00e2d1add0E;
	.scl	3;
	.type	32;
	.endef
	.section	.text,"xr",one_only,_ZN4core3ptr5write17hdf01ae00e2d1add0E
	.p2align	4, 0x90
_ZN4core3ptr5write17hdf01ae00e2d1add0E:
.seh_proc _ZN4core3ptr5write17hdf01ae00e2d1add0E
	pushq	%rax
	.seh_stackalloc 8
	.seh_endprologue
	movq	%rdx, (%rsp)
	movq	(%rsp), %rax
	movq	%rax, (%rcx)
	popq	%rax
	retq
	.seh_endproc

	.def	_ZN4core3ptr68drop_in_place$LT$std..collections..hash..set..HashSet$LT$i32$GT$$GT$17h19d518508f6389b4E;
	.scl	3;
	.type	32;
	.endef
	.section	.text,"xr",one_only,_ZN4core3ptr68drop_in_place$LT$std..collections..hash..set..HashSet$LT$i32$GT$$GT$17h19d518508f6389b4E
	.p2align	4, 0x90
_ZN4core3ptr68drop_in_place$LT$std..collections..hash..set..HashSet$LT$i32$GT$$GT$17h19d518508f6389b4E:
.seh_proc _ZN4core3ptr68drop_in_place$LT$std..collections..hash..set..HashSet$LT$i32$GT$$GT$17h19d518508f6389b4E
	subq	$40, %rsp
	.seh_stackalloc 40
	.seh_endprologue
	callq	_ZN4core3ptr98drop_in_place$LT$hashbrown..set..HashSet$LT$i32$C$std..collections..hash..map..RandomState$GT$$GT$17h15a50c1dd0442d1fE
	nop
	addq	$40, %rsp
	retq
	.seh_endproc

	.def	_ZN4core3ptr6unique15Unique$LT$T$GT$13new_unchecked17h1203b09ae95f8643E;
	.scl	3;
	.type	32;
	.endef
	.section	.text,"xr",one_only,_ZN4core3ptr6unique15Unique$LT$T$GT$13new_unchecked17h1203b09ae95f8643E
	.p2align	4, 0x90
_ZN4core3ptr6unique15Unique$LT$T$GT$13new_unchecked17h1203b09ae95f8643E:
.seh_proc _ZN4core3ptr6unique15Unique$LT$T$GT$13new_unchecked17h1203b09ae95f8643E
	subq	$56, %rsp
	.seh_stackalloc 56
	.seh_endprologue
	callq	_ZN4core3ptr8non_null16NonNull$LT$T$GT$13new_unchecked17hd079bd212b901bd2E
	movq	%rax, 40(%rsp)
	movq	40(%rsp), %rax
	movq	%rax, 48(%rsp)
	movq	48(%rsp), %rax
	addq	$56, %rsp
	retq
	.seh_endproc

	.def	_ZN4core3ptr6unique15Unique$LT$T$GT$4cast17h22bd0c4dd34ce567E;
	.scl	3;
	.type	32;
	.endef
	.section	.text,"xr",one_only,_ZN4core3ptr6unique15Unique$LT$T$GT$4cast17h22bd0c4dd34ce567E
	.p2align	4, 0x90
_ZN4core3ptr6unique15Unique$LT$T$GT$4cast17h22bd0c4dd34ce567E:
.seh_proc _ZN4core3ptr6unique15Unique$LT$T$GT$4cast17h22bd0c4dd34ce567E
	subq	$56, %rsp
	.seh_stackalloc 56
	.seh_endprologue
	callq	_ZN4core3ptr8non_null16NonNull$LT$T$GT$4cast17h4099496089dbd4d5E
	movq	%rax, 48(%rsp)
	movq	48(%rsp), %rcx
	callq	_ZN119_$LT$core..ptr..unique..Unique$LT$T$GT$$u20$as$u20$core..convert..From$LT$core..ptr..non_null..NonNull$LT$T$GT$$GT$$GT$4from17hf5672e72389d0282E
	movq	%rax, 40(%rsp)
	movq	40(%rsp), %rax
	addq	$56, %rsp
	retq
	.seh_endproc

	.def	_ZN4core3ptr6unique15Unique$LT$T$GT$4cast17hba1b8558f5b659b7E;
	.scl	3;
	.type	32;
	.endef
	.section	.text,"xr",one_only,_ZN4core3ptr6unique15Unique$LT$T$GT$4cast17hba1b8558f5b659b7E
	.p2align	4, 0x90
_ZN4core3ptr6unique15Unique$LT$T$GT$4cast17hba1b8558f5b659b7E:
.seh_proc _ZN4core3ptr6unique15Unique$LT$T$GT$4cast17hba1b8558f5b659b7E
	subq	$56, %rsp
	.seh_stackalloc 56
	.seh_endprologue
	callq	_ZN4core3ptr8non_null16NonNull$LT$T$GT$4cast17h62d7450ea53a2333E
	movq	%rax, 48(%rsp)
	movq	48(%rsp), %rcx
	callq	_ZN119_$LT$core..ptr..unique..Unique$LT$T$GT$$u20$as$u20$core..convert..From$LT$core..ptr..non_null..NonNull$LT$T$GT$$GT$$GT$4from17hf5672e72389d0282E
	movq	%rax, 40(%rsp)
	movq	40(%rsp), %rax
	addq	$56, %rsp
	retq
	.seh_endproc

	.def	_ZN4core3ptr6unique15Unique$LT$T$GT$6as_ptr17h0ef09c0aeb97931cE;
	.scl	3;
	.type	32;
	.endef
	.section	.text,"xr",one_only,_ZN4core3ptr6unique15Unique$LT$T$GT$6as_ptr17h0ef09c0aeb97931cE
	.p2align	4, 0x90
_ZN4core3ptr6unique15Unique$LT$T$GT$6as_ptr17h0ef09c0aeb97931cE:
.seh_proc _ZN4core3ptr6unique15Unique$LT$T$GT$6as_ptr17h0ef09c0aeb97931cE
	subq	$56, %rsp
	.seh_stackalloc 56
	.seh_endprologue
	callq	_ZN4core3ptr8non_null16NonNull$LT$T$GT$6as_ptr17h0c69416547207d0cE
	movq	%rax, 40(%rsp)
	movq	%rdx, 48(%rsp)
	movq	48(%rsp), %rdx
	movq	40(%rsp), %rax
	addq	$56, %rsp
	retq
	.seh_endproc

	.def	_ZN4core3ptr6unique15Unique$LT$T$GT$6as_ptr17h2a71b163411f8313E;
	.scl	3;
	.type	32;
	.endef
	.section	.text,"xr",one_only,_ZN4core3ptr6unique15Unique$LT$T$GT$6as_ptr17h2a71b163411f8313E
	.p2align	4, 0x90
_ZN4core3ptr6unique15Unique$LT$T$GT$6as_ptr17h2a71b163411f8313E:
.seh_proc _ZN4core3ptr6unique15Unique$LT$T$GT$6as_ptr17h2a71b163411f8313E
	subq	$40, %rsp
	.seh_stackalloc 40
	.seh_endprologue
	callq	_ZN4core3ptr8non_null16NonNull$LT$T$GT$6as_ptr17h3dca4ffcd4a38b8cE
	movq	%rax, 32(%rsp)
	movq	32(%rsp), %rax
	addq	$40, %rsp
	retq
	.seh_endproc

	.def	_ZN4core3ptr6unique15Unique$LT$T$GT$6as_ptr17h6e3e0d78e609d02dE;
	.scl	3;
	.type	32;
	.endef
	.section	.text,"xr",one_only,_ZN4core3ptr6unique15Unique$LT$T$GT$6as_ptr17h6e3e0d78e609d02dE
	.p2align	4, 0x90
_ZN4core3ptr6unique15Unique$LT$T$GT$6as_ptr17h6e3e0d78e609d02dE:
.seh_proc _ZN4core3ptr6unique15Unique$LT$T$GT$6as_ptr17h6e3e0d78e609d02dE
	subq	$40, %rsp
	.seh_stackalloc 40
	.seh_endprologue
	callq	_ZN4core3ptr8non_null16NonNull$LT$T$GT$6as_ptr17hd9acda423696ccd2E
	movq	%rax, 32(%rsp)
	movq	32(%rsp), %rax
	addq	$40, %rsp
	retq
	.seh_endproc

	.def	_ZN4core3ptr6unique15Unique$LT$T$GT$6as_ref17hdd021a28f7c955d8E;
	.scl	3;
	.type	32;
	.endef
	.section	.text,"xr",one_only,_ZN4core3ptr6unique15Unique$LT$T$GT$6as_ref17hdd021a28f7c955d8E
	.p2align	4, 0x90
_ZN4core3ptr6unique15Unique$LT$T$GT$6as_ref17hdd021a28f7c955d8E:
.seh_proc _ZN4core3ptr6unique15Unique$LT$T$GT$6as_ref17hdd021a28f7c955d8E
	subq	$56, %rsp
	.seh_stackalloc 56
	.seh_endprologue
	callq	_ZN4core3ptr8non_null16NonNull$LT$T$GT$6as_ref17h00a49072155f15b8E
	movq	%rax, 40(%rsp)
	movq	%rdx, 48(%rsp)
	movq	48(%rsp), %rdx
	movq	40(%rsp), %rax
	addq	$56, %rsp
	retq
	.seh_endproc

	.def	_ZN4core3ptr75drop_in_place$LT$hashbrown..raw..RawTable$LT$$LP$i32$C$$LP$$RP$$RP$$GT$$GT$17he44bd6c815f1024eE;
	.scl	3;
	.type	32;
	.endef
	.section	.text,"xr",one_only,_ZN4core3ptr75drop_in_place$LT$hashbrown..raw..RawTable$LT$$LP$i32$C$$LP$$RP$$RP$$GT$$GT$17he44bd6c815f1024eE
	.p2align	4, 0x90
_ZN4core3ptr75drop_in_place$LT$hashbrown..raw..RawTable$LT$$LP$i32$C$$LP$$RP$$RP$$GT$$GT$17he44bd6c815f1024eE:
.seh_proc _ZN4core3ptr75drop_in_place$LT$hashbrown..raw..RawTable$LT$$LP$i32$C$$LP$$RP$$RP$$GT$$GT$17he44bd6c815f1024eE
	subq	$40, %rsp
	.seh_stackalloc 40
	.seh_endprologue
	callq	_ZN79_$LT$hashbrown..raw..RawTable$LT$T$C$A$GT$$u20$as$u20$core..ops..drop..Drop$GT$4drop17he04e8c0ebaf8ea4cE
	nop
	addq	$40, %rsp
	retq
	.seh_endproc

	.def	_ZN4core3ptr7mut_ptr31_$LT$impl$u20$$BP$mut$u20$T$GT$13guaranteed_eq17h5c584c81b31448d6E;
	.scl	3;
	.type	32;
	.endef
	.section	.text,"xr",one_only,_ZN4core3ptr7mut_ptr31_$LT$impl$u20$$BP$mut$u20$T$GT$13guaranteed_eq17h5c584c81b31448d6E
	.p2align	4, 0x90
_ZN4core3ptr7mut_ptr31_$LT$impl$u20$$BP$mut$u20$T$GT$13guaranteed_eq17h5c584c81b31448d6E:
.seh_proc _ZN4core3ptr7mut_ptr31_$LT$impl$u20$$BP$mut$u20$T$GT$13guaranteed_eq17h5c584c81b31448d6E
	pushq	%rax
	.seh_stackalloc 8
	.seh_endprologue
	cmpq	%rdx, %rcx
	sete	%al
	andb	$1, %al
	movb	%al, 7(%rsp)
	movb	7(%rsp), %al
	movb	%al, 6(%rsp)
	movb	6(%rsp), %al
	andb	$1, %al
	movzbl	%al, %eax
	popq	%rcx
	retq
	.seh_endproc

	.def	_ZN4core3ptr7mut_ptr31_$LT$impl$u20$$BP$mut$u20$T$GT$3sub17h49a2f4833a45e54fE;
	.scl	3;
	.type	32;
	.endef
	.section	.text,"xr",one_only,_ZN4core3ptr7mut_ptr31_$LT$impl$u20$$BP$mut$u20$T$GT$3sub17h49a2f4833a45e54fE
	.p2align	4, 0x90
_ZN4core3ptr7mut_ptr31_$LT$impl$u20$$BP$mut$u20$T$GT$3sub17h49a2f4833a45e54fE:
.seh_proc _ZN4core3ptr7mut_ptr31_$LT$impl$u20$$BP$mut$u20$T$GT$3sub17h49a2f4833a45e54fE
	subq	$32, %rsp
	.seh_stackalloc 32
	.seh_endprologue
	movq	%rcx, 8(%rsp)
	xorl	%eax, %eax
	subq	%rdx, %rax
	movq	%rax, 16(%rsp)
	movq	8(%rsp), %rax
	movq	16(%rsp), %rcx
	shlq	$2, %rcx
	addq	%rcx, %rax
	movq	%rax, 24(%rsp)
	movq	24(%rsp), %rax
	movq	%rax, (%rsp)
	movq	(%rsp), %rax
	addq	$32, %rsp
	retq
	.seh_endproc

	.def	_ZN4core3ptr7mut_ptr31_$LT$impl$u20$$BP$mut$u20$T$GT$3sub17hbb40299a579f8abcE;
	.scl	3;
	.type	32;
	.endef
	.section	.text,"xr",one_only,_ZN4core3ptr7mut_ptr31_$LT$impl$u20$$BP$mut$u20$T$GT$3sub17hbb40299a579f8abcE
	.p2align	4, 0x90
_ZN4core3ptr7mut_ptr31_$LT$impl$u20$$BP$mut$u20$T$GT$3sub17hbb40299a579f8abcE:
.seh_proc _ZN4core3ptr7mut_ptr31_$LT$impl$u20$$BP$mut$u20$T$GT$3sub17hbb40299a579f8abcE
	subq	$32, %rsp
	.seh_stackalloc 32
	.seh_endprologue
	movq	%rcx, 8(%rsp)
	xorl	%eax, %eax
	subq	%rdx, %rax
	movq	%rax, 16(%rsp)
	movq	16(%rsp), %rcx
	movq	8(%rsp), %rax
	addq	%rcx, %rax
	movq	%rax, 24(%rsp)
	movq	24(%rsp), %rax
	movq	%rax, (%rsp)
	movq	(%rsp), %rax
	addq	$32, %rsp
	retq
	.seh_endproc

	.def	_ZN4core3ptr7mut_ptr31_$LT$impl$u20$$BP$mut$u20$T$GT$7is_null17h051c833b9731c34fE;
	.scl	3;
	.type	32;
	.endef
	.section	.text,"xr",one_only,_ZN4core3ptr7mut_ptr31_$LT$impl$u20$$BP$mut$u20$T$GT$7is_null17h051c833b9731c34fE
	.p2align	4, 0x90
_ZN4core3ptr7mut_ptr31_$LT$impl$u20$$BP$mut$u20$T$GT$7is_null17h051c833b9731c34fE:
.seh_proc _ZN4core3ptr7mut_ptr31_$LT$impl$u20$$BP$mut$u20$T$GT$7is_null17h051c833b9731c34fE
	subq	$72, %rsp
	.seh_stackalloc 72
	.seh_endprologue
	movq	%rcx, 48(%rsp)
	movq	$0, 64(%rsp)
	movq	64(%rsp), %rcx
	callq	_ZN4core3ptr8metadata18from_raw_parts_mut17hc34ac76088e56bcdE
	movq	%rax, 56(%rsp)
	movq	56(%rsp), %rdx
	movq	48(%rsp), %rcx
	callq	_ZN4core3ptr7mut_ptr31_$LT$impl$u20$$BP$mut$u20$T$GT$13guaranteed_eq17h5c584c81b31448d6E
	movb	%al, 47(%rsp)
	movb	47(%rsp), %al
	andb	$1, %al
	movzbl	%al, %eax
	addq	$72, %rsp
	retq
	.seh_endproc

	.def	_ZN4core3ptr7mut_ptr31_$LT$impl$u20$$BP$mut$u20$T$GT$7is_null17h376da2df04416df7E;
	.scl	3;
	.type	32;
	.endef
	.section	.text,"xr",one_only,_ZN4core3ptr7mut_ptr31_$LT$impl$u20$$BP$mut$u20$T$GT$7is_null17h376da2df04416df7E
	.p2align	4, 0x90
_ZN4core3ptr7mut_ptr31_$LT$impl$u20$$BP$mut$u20$T$GT$7is_null17h376da2df04416df7E:
.seh_proc _ZN4core3ptr7mut_ptr31_$LT$impl$u20$$BP$mut$u20$T$GT$7is_null17h376da2df04416df7E
	subq	$72, %rsp
	.seh_stackalloc 72
	.seh_endprologue
	movq	%rcx, 48(%rsp)
	movq	$0, 64(%rsp)
	movq	64(%rsp), %rcx
	callq	_ZN4core3ptr8metadata18from_raw_parts_mut17hc34ac76088e56bcdE
	movq	%rax, 56(%rsp)
	movq	56(%rsp), %rdx
	movq	48(%rsp), %rcx
	callq	_ZN4core3ptr7mut_ptr31_$LT$impl$u20$$BP$mut$u20$T$GT$13guaranteed_eq17h5c584c81b31448d6E
	movb	%al, 47(%rsp)
	movb	47(%rsp), %al
	andb	$1, %al
	movzbl	%al, %eax
	addq	$72, %rsp
	retq
	.seh_endproc

	.def	_ZN4core3ptr85drop_in_place$LT$std..rt..lang_start$LT$$LP$$RP$$GT$..$u7b$$u7b$closure$u7d$$u7d$$GT$17h676148a58a8b60f0E;
	.scl	3;
	.type	32;
	.endef
	.section	.text,"xr",one_only,_ZN4core3ptr85drop_in_place$LT$std..rt..lang_start$LT$$LP$$RP$$GT$..$u7b$$u7b$closure$u7d$$u7d$$GT$17h676148a58a8b60f0E
	.p2align	4, 0x90
_ZN4core3ptr85drop_in_place$LT$std..rt..lang_start$LT$$LP$$RP$$GT$..$u7b$$u7b$closure$u7d$$u7d$$GT$17h676148a58a8b60f0E:
	retq

	.def	_ZN4core3ptr8metadata18from_raw_parts_mut17h32cd1d430acdd1adE;
	.scl	3;
	.type	32;
	.endef
	.section	.text,"xr",one_only,_ZN4core3ptr8metadata18from_raw_parts_mut17h32cd1d430acdd1adE
	.p2align	4, 0x90
_ZN4core3ptr8metadata18from_raw_parts_mut17h32cd1d430acdd1adE:
.seh_proc _ZN4core3ptr8metadata18from_raw_parts_mut17h32cd1d430acdd1adE
	subq	$32, %rsp
	.seh_stackalloc 32
	.seh_endprologue
	movq	%rcx, 16(%rsp)
	movq	%rdx, 24(%rsp)
	movq	16(%rsp), %rcx
	movq	24(%rsp), %rax
	movq	%rcx, (%rsp)
	movq	%rax, 8(%rsp)
	movq	(%rsp), %rax
	movq	8(%rsp), %rdx
	addq	$32, %rsp
	retq
	.seh_endproc

	.def	_ZN4core3ptr8metadata18from_raw_parts_mut17h428adc95d19e61cbE;
	.scl	3;
	.type	32;
	.endef
	.section	.text,"xr",one_only,_ZN4core3ptr8metadata18from_raw_parts_mut17h428adc95d19e61cbE
	.p2align	4, 0x90
_ZN4core3ptr8metadata18from_raw_parts_mut17h428adc95d19e61cbE:
.seh_proc _ZN4core3ptr8metadata18from_raw_parts_mut17h428adc95d19e61cbE
	subq	$32, %rsp
	.seh_stackalloc 32
	.seh_endprologue
	movq	%rcx, 16(%rsp)
	movq	%rdx, 24(%rsp)
	movq	16(%rsp), %rcx
	movq	24(%rsp), %rax
	movq	%rcx, (%rsp)
	movq	%rax, 8(%rsp)
	movq	(%rsp), %rax
	movq	8(%rsp), %rdx
	addq	$32, %rsp
	retq
	.seh_endproc

	.def	_ZN4core3ptr8metadata18from_raw_parts_mut17hc34ac76088e56bcdE;
	.scl	3;
	.type	32;
	.endef
	.section	.text,"xr",one_only,_ZN4core3ptr8metadata18from_raw_parts_mut17hc34ac76088e56bcdE
	.p2align	4, 0x90
_ZN4core3ptr8metadata18from_raw_parts_mut17hc34ac76088e56bcdE:
.seh_proc _ZN4core3ptr8metadata18from_raw_parts_mut17hc34ac76088e56bcdE
	subq	$16, %rsp
	.seh_stackalloc 16
	.seh_endprologue
	movq	%rcx, 8(%rsp)
	movq	8(%rsp), %rax
	movq	%rax, (%rsp)
	movq	(%rsp), %rax
	addq	$16, %rsp
	retq
	.seh_endproc

	.def	_ZN4core3ptr8non_null16NonNull$LT$T$GT$13new_unchecked17h3c2e23cb5eeb7993E;
	.scl	3;
	.type	32;
	.endef
	.section	.text,"xr",one_only,_ZN4core3ptr8non_null16NonNull$LT$T$GT$13new_unchecked17h3c2e23cb5eeb7993E
	.p2align	4, 0x90
_ZN4core3ptr8non_null16NonNull$LT$T$GT$13new_unchecked17h3c2e23cb5eeb7993E:
.seh_proc _ZN4core3ptr8non_null16NonNull$LT$T$GT$13new_unchecked17h3c2e23cb5eeb7993E
	pushq	%rax
	.seh_stackalloc 8
	.seh_endprologue
	movq	%rcx, (%rsp)
	movq	(%rsp), %rax
	popq	%rcx
	retq
	.seh_endproc

	.def	_ZN4core3ptr8non_null16NonNull$LT$T$GT$13new_unchecked17h51d1a902be131033E;
	.scl	3;
	.type	32;
	.endef
	.section	.text,"xr",one_only,_ZN4core3ptr8non_null16NonNull$LT$T$GT$13new_unchecked17h51d1a902be131033E
	.p2align	4, 0x90
_ZN4core3ptr8non_null16NonNull$LT$T$GT$13new_unchecked17h51d1a902be131033E:
.seh_proc _ZN4core3ptr8non_null16NonNull$LT$T$GT$13new_unchecked17h51d1a902be131033E
	pushq	%rax
	.seh_stackalloc 8
	.seh_endprologue
	movq	%rcx, (%rsp)
	movq	(%rsp), %rax
	popq	%rcx
	retq
	.seh_endproc

	.def	_ZN4core3ptr8non_null16NonNull$LT$T$GT$13new_unchecked17hd079bd212b901bd2E;
	.scl	3;
	.type	32;
	.endef
	.section	.text,"xr",one_only,_ZN4core3ptr8non_null16NonNull$LT$T$GT$13new_unchecked17hd079bd212b901bd2E
	.p2align	4, 0x90
_ZN4core3ptr8non_null16NonNull$LT$T$GT$13new_unchecked17hd079bd212b901bd2E:
.seh_proc _ZN4core3ptr8non_null16NonNull$LT$T$GT$13new_unchecked17hd079bd212b901bd2E
	pushq	%rax
	.seh_stackalloc 8
	.seh_endprologue
	movq	%rcx, (%rsp)
	movq	(%rsp), %rax
	popq	%rcx
	retq
	.seh_endproc

	.def	_ZN4core3ptr8non_null16NonNull$LT$T$GT$13new_unchecked17hf5ad399733d82c09E;
	.scl	3;
	.type	32;
	.endef
	.section	.text,"xr",one_only,_ZN4core3ptr8non_null16NonNull$LT$T$GT$13new_unchecked17hf5ad399733d82c09E
	.p2align	4, 0x90
_ZN4core3ptr8non_null16NonNull$LT$T$GT$13new_unchecked17hf5ad399733d82c09E:
.seh_proc _ZN4core3ptr8non_null16NonNull$LT$T$GT$13new_unchecked17hf5ad399733d82c09E
	subq	$16, %rsp
	.seh_stackalloc 16
	.seh_endprologue
	movq	%rcx, (%rsp)
	movq	%rdx, 8(%rsp)
	movq	(%rsp), %rax
	movq	8(%rsp), %rdx
	addq	$16, %rsp
	retq
	.seh_endproc

	.def	_ZN4core3ptr8non_null16NonNull$LT$T$GT$3new17h8cea5919ebacef4aE;
	.scl	3;
	.type	32;
	.endef
	.section	.text,"xr",one_only,_ZN4core3ptr8non_null16NonNull$LT$T$GT$3new17h8cea5919ebacef4aE
	.p2align	4, 0x90
_ZN4core3ptr8non_null16NonNull$LT$T$GT$3new17h8cea5919ebacef4aE:
.seh_proc _ZN4core3ptr8non_null16NonNull$LT$T$GT$3new17h8cea5919ebacef4aE
	subq	$72, %rsp
	.seh_stackalloc 72
	.seh_endprologue
	movq	%rcx, 48(%rsp)
	callq	_ZN4core3ptr7mut_ptr31_$LT$impl$u20$$BP$mut$u20$T$GT$7is_null17h376da2df04416df7E
	movb	%al, 63(%rsp)
	movb	63(%rsp), %al
	xorb	$-1, %al
	testb	$1, %al
	jne	.LBB86_3
	movq	$0, 64(%rsp)
	jmp	.LBB86_5
.LBB86_3:
	movq	48(%rsp), %rcx
	callq	_ZN4core3ptr8non_null16NonNull$LT$T$GT$13new_unchecked17h3c2e23cb5eeb7993E
	movq	%rax, 40(%rsp)
	movq	40(%rsp), %rax
	movq	%rax, 64(%rsp)
.LBB86_5:
	movq	64(%rsp), %rax
	addq	$72, %rsp
	retq
	.seh_endproc

	.def	_ZN4core3ptr8non_null16NonNull$LT$T$GT$4cast17h4099496089dbd4d5E;
	.scl	3;
	.type	32;
	.endef
	.section	.text,"xr",one_only,_ZN4core3ptr8non_null16NonNull$LT$T$GT$4cast17h4099496089dbd4d5E
	.p2align	4, 0x90
_ZN4core3ptr8non_null16NonNull$LT$T$GT$4cast17h4099496089dbd4d5E:
.seh_proc _ZN4core3ptr8non_null16NonNull$LT$T$GT$4cast17h4099496089dbd4d5E
	subq	$56, %rsp
	.seh_stackalloc 56
	.seh_endprologue
	callq	_ZN4core3ptr8non_null16NonNull$LT$T$GT$6as_ptr17h0c69416547207d0cE
	movq	%rax, 48(%rsp)
	movq	48(%rsp), %rcx
	callq	_ZN4core3ptr8non_null16NonNull$LT$T$GT$13new_unchecked17h3c2e23cb5eeb7993E
	movq	%rax, 40(%rsp)
	movq	40(%rsp), %rax
	addq	$56, %rsp
	retq
	.seh_endproc

	.def	_ZN4core3ptr8non_null16NonNull$LT$T$GT$4cast17h62d7450ea53a2333E;
	.scl	3;
	.type	32;
	.endef
	.section	.text,"xr",one_only,_ZN4core3ptr8non_null16NonNull$LT$T$GT$4cast17h62d7450ea53a2333E
	.p2align	4, 0x90
_ZN4core3ptr8non_null16NonNull$LT$T$GT$4cast17h62d7450ea53a2333E:
.seh_proc _ZN4core3ptr8non_null16NonNull$LT$T$GT$4cast17h62d7450ea53a2333E
	subq	$56, %rsp
	.seh_stackalloc 56
	.seh_endprologue
	callq	_ZN4core3ptr8non_null16NonNull$LT$T$GT$6as_ptr17hd9acda423696ccd2E
	movq	%rax, 48(%rsp)
	movq	48(%rsp), %rcx
	callq	_ZN4core3ptr8non_null16NonNull$LT$T$GT$13new_unchecked17h3c2e23cb5eeb7993E
	movq	%rax, 40(%rsp)
	movq	40(%rsp), %rax
	addq	$56, %rsp
	retq
	.seh_endproc

	.def	_ZN4core3ptr8non_null16NonNull$LT$T$GT$4cast17hd3f622afa89147d7E;
	.scl	3;
	.type	32;
	.endef
	.section	.text,"xr",one_only,_ZN4core3ptr8non_null16NonNull$LT$T$GT$4cast17hd3f622afa89147d7E
	.p2align	4, 0x90
_ZN4core3ptr8non_null16NonNull$LT$T$GT$4cast17hd3f622afa89147d7E:
.seh_proc _ZN4core3ptr8non_null16NonNull$LT$T$GT$4cast17hd3f622afa89147d7E
	subq	$56, %rsp
	.seh_stackalloc 56
	.seh_endprologue
	callq	_ZN4core3ptr8non_null16NonNull$LT$T$GT$6as_ptr17h6135063ffa7b2ca5E
	movq	%rax, 48(%rsp)
	movq	48(%rsp), %rcx
	callq	_ZN4core3ptr8non_null16NonNull$LT$T$GT$13new_unchecked17hd079bd212b901bd2E
	movq	%rax, 40(%rsp)
	movq	40(%rsp), %rax
	addq	$56, %rsp
	retq
	.seh_endproc

	.def	_ZN4core3ptr8non_null16NonNull$LT$T$GT$6as_ptr17h0c69416547207d0cE;
	.scl	3;
	.type	32;
	.endef
	.section	.text,"xr",one_only,_ZN4core3ptr8non_null16NonNull$LT$T$GT$6as_ptr17h0c69416547207d0cE
	.p2align	4, 0x90
_ZN4core3ptr8non_null16NonNull$LT$T$GT$6as_ptr17h0c69416547207d0cE:
	movq	%rcx, %rax
	retq

	.def	_ZN4core3ptr8non_null16NonNull$LT$T$GT$6as_ptr17h3dca4ffcd4a38b8cE;
	.scl	3;
	.type	32;
	.endef
	.section	.text,"xr",one_only,_ZN4core3ptr8non_null16NonNull$LT$T$GT$6as_ptr17h3dca4ffcd4a38b8cE
	.p2align	4, 0x90
_ZN4core3ptr8non_null16NonNull$LT$T$GT$6as_ptr17h3dca4ffcd4a38b8cE:
	movq	%rcx, %rax
	retq

	.def	_ZN4core3ptr8non_null16NonNull$LT$T$GT$6as_ptr17h6135063ffa7b2ca5E;
	.scl	3;
	.type	32;
	.endef
	.section	.text,"xr",one_only,_ZN4core3ptr8non_null16NonNull$LT$T$GT$6as_ptr17h6135063ffa7b2ca5E
	.p2align	4, 0x90
_ZN4core3ptr8non_null16NonNull$LT$T$GT$6as_ptr17h6135063ffa7b2ca5E:
	movq	%rcx, %rax
	retq

	.def	_ZN4core3ptr8non_null16NonNull$LT$T$GT$6as_ptr17hd9acda423696ccd2E;
	.scl	3;
	.type	32;
	.endef
	.section	.text,"xr",one_only,_ZN4core3ptr8non_null16NonNull$LT$T$GT$6as_ptr17hd9acda423696ccd2E
	.p2align	4, 0x90
_ZN4core3ptr8non_null16NonNull$LT$T$GT$6as_ptr17hd9acda423696ccd2E:
	movq	%rcx, %rax
	retq

	.def	_ZN4core3ptr8non_null16NonNull$LT$T$GT$6as_ptr17hd9e965a65284a958E;
	.scl	3;
	.type	32;
	.endef
	.section	.text,"xr",one_only,_ZN4core3ptr8non_null16NonNull$LT$T$GT$6as_ptr17hd9e965a65284a958E
	.p2align	4, 0x90
_ZN4core3ptr8non_null16NonNull$LT$T$GT$6as_ptr17hd9e965a65284a958E:
	movq	%rcx, %rax
	retq

	.def	_ZN4core3ptr8non_null16NonNull$LT$T$GT$6as_ref17h00a49072155f15b8E;
	.scl	3;
	.type	32;
	.endef
	.section	.text,"xr",one_only,_ZN4core3ptr8non_null16NonNull$LT$T$GT$6as_ref17h00a49072155f15b8E
	.p2align	4, 0x90
_ZN4core3ptr8non_null16NonNull$LT$T$GT$6as_ref17h00a49072155f15b8E:
.seh_proc _ZN4core3ptr8non_null16NonNull$LT$T$GT$6as_ref17h00a49072155f15b8E
	subq	$56, %rsp
	.seh_stackalloc 56
	.seh_endprologue
	movq	%rcx, %rax
	movq	(%rax), %rcx
	movq	8(%rax), %rdx
	callq	_ZN4core3ptr8non_null16NonNull$LT$T$GT$6as_ptr17h0c69416547207d0cE
	movq	%rax, 40(%rsp)
	movq	%rdx, 48(%rsp)
	movq	48(%rsp), %rdx
	movq	40(%rsp), %rax
	addq	$56, %rsp
	retq
	.seh_endproc

	.def	_ZN4core3ptr8non_null26NonNull$LT$$u5b$T$u5d$$GT$10as_mut_ptr17h0fc293fecc4b88b0E;
	.scl	3;
	.type	32;
	.endef
	.section	.text,"xr",one_only,_ZN4core3ptr8non_null26NonNull$LT$$u5b$T$u5d$$GT$10as_mut_ptr17h0fc293fecc4b88b0E
	.p2align	4, 0x90
_ZN4core3ptr8non_null26NonNull$LT$$u5b$T$u5d$$GT$10as_mut_ptr17h0fc293fecc4b88b0E:
.seh_proc _ZN4core3ptr8non_null26NonNull$LT$$u5b$T$u5d$$GT$10as_mut_ptr17h0fc293fecc4b88b0E
	subq	$56, %rsp
	.seh_stackalloc 56
	.seh_endprologue
	callq	_ZN4core3ptr8non_null26NonNull$LT$$u5b$T$u5d$$GT$15as_non_null_ptr17h061b7063dbf3fb23E
	movq	%rax, 48(%rsp)
	movq	48(%rsp), %rcx
	callq	_ZN4core3ptr8non_null16NonNull$LT$T$GT$6as_ptr17h3dca4ffcd4a38b8cE
	movq	%rax, 40(%rsp)
	movq	40(%rsp), %rax
	addq	$56, %rsp
	retq
	.seh_endproc

	.def	_ZN4core3ptr8non_null26NonNull$LT$$u5b$T$u5d$$GT$15as_non_null_ptr17h061b7063dbf3fb23E;
	.scl	3;
	.type	32;
	.endef
	.section	.text,"xr",one_only,_ZN4core3ptr8non_null26NonNull$LT$$u5b$T$u5d$$GT$15as_non_null_ptr17h061b7063dbf3fb23E
	.p2align	4, 0x90
_ZN4core3ptr8non_null26NonNull$LT$$u5b$T$u5d$$GT$15as_non_null_ptr17h061b7063dbf3fb23E:
.seh_proc _ZN4core3ptr8non_null26NonNull$LT$$u5b$T$u5d$$GT$15as_non_null_ptr17h061b7063dbf3fb23E
	subq	$56, %rsp
	.seh_stackalloc 56
	.seh_endprologue
	callq	_ZN4core3ptr8non_null16NonNull$LT$T$GT$6as_ptr17h6135063ffa7b2ca5E
	movq	%rax, 48(%rsp)
	movq	48(%rsp), %rax
	movq	%rax, 40(%rsp)
	movq	40(%rsp), %rcx
	callq	_ZN4core3ptr8non_null16NonNull$LT$T$GT$13new_unchecked17h3c2e23cb5eeb7993E
	movq	%rax, 32(%rsp)
	movq	32(%rsp), %rax
	addq	$56, %rsp
	retq
	.seh_endproc

	.def	_ZN4core3ptr8non_null26NonNull$LT$$u5b$T$u5d$$GT$20slice_from_raw_parts17h4d65c9583dc3c64bE;
	.scl	3;
	.type	32;
	.endef
	.section	.text,"xr",one_only,_ZN4core3ptr8non_null26NonNull$LT$$u5b$T$u5d$$GT$20slice_from_raw_parts17h4d65c9583dc3c64bE
	.p2align	4, 0x90
_ZN4core3ptr8non_null26NonNull$LT$$u5b$T$u5d$$GT$20slice_from_raw_parts17h4d65c9583dc3c64bE:
.seh_proc _ZN4core3ptr8non_null26NonNull$LT$$u5b$T$u5d$$GT$20slice_from_raw_parts17h4d65c9583dc3c64bE
	subq	$88, %rsp
	.seh_stackalloc 88
	.seh_endprologue
	movq	%rdx, 72(%rsp)
	callq	_ZN4core3ptr8non_null16NonNull$LT$T$GT$6as_ptr17h3dca4ffcd4a38b8cE
	movq	%rax, 80(%rsp)
	movq	72(%rsp), %rdx
	movq	80(%rsp), %rcx
	callq	_ZN4core3ptr24slice_from_raw_parts_mut17h647484d7c669fcceE
	movq	%rax, 56(%rsp)
	movq	%rdx, 64(%rsp)
	movq	64(%rsp), %rdx
	movq	56(%rsp), %rcx
	callq	_ZN4core3ptr8non_null16NonNull$LT$T$GT$13new_unchecked17hf5ad399733d82c09E
	movq	%rax, 40(%rsp)
	movq	%rdx, 48(%rsp)
	movq	48(%rsp), %rdx
	movq	40(%rsp), %rax
	addq	$88, %rsp
	retq
	.seh_endproc

	.def	_ZN4core3ptr98drop_in_place$LT$hashbrown..set..HashSet$LT$i32$C$std..collections..hash..map..RandomState$GT$$GT$17h15a50c1dd0442d1fE;
	.scl	3;
	.type	32;
	.endef
	.section	.text,"xr",one_only,_ZN4core3ptr98drop_in_place$LT$hashbrown..set..HashSet$LT$i32$C$std..collections..hash..map..RandomState$GT$$GT$17h15a50c1dd0442d1fE
	.p2align	4, 0x90
_ZN4core3ptr98drop_in_place$LT$hashbrown..set..HashSet$LT$i32$C$std..collections..hash..map..RandomState$GT$$GT$17h15a50c1dd0442d1fE:
.seh_proc _ZN4core3ptr98drop_in_place$LT$hashbrown..set..HashSet$LT$i32$C$std..collections..hash..map..RandomState$GT$$GT$17h15a50c1dd0442d1fE
	subq	$40, %rsp
	.seh_stackalloc 40
	.seh_endprologue
	callq	_ZN4core3ptr109drop_in_place$LT$hashbrown..map..HashMap$LT$i32$C$$LP$$RP$$C$std..collections..hash..map..RandomState$GT$$GT$17h9e35758402cf3d35E
	nop
	addq	$40, %rsp
	retq
	.seh_endproc

	.def	_ZN4core3ptr9const_ptr33_$LT$impl$u20$$BP$const$u20$T$GT$4cast17h632c41ca465ff5bcE;
	.scl	3;
	.type	32;
	.endef
	.section	.text,"xr",one_only,_ZN4core3ptr9const_ptr33_$LT$impl$u20$$BP$const$u20$T$GT$4cast17h632c41ca465ff5bcE
	.p2align	4, 0x90
_ZN4core3ptr9const_ptr33_$LT$impl$u20$$BP$const$u20$T$GT$4cast17h632c41ca465ff5bcE:
	movq	%rcx, %rax
	retq

	.def	_ZN4core4cell13Cell$LT$T$GT$3get17h167f6826215dbd2fE;
	.scl	3;
	.type	32;
	.endef
	.section	.text,"xr",one_only,_ZN4core4cell13Cell$LT$T$GT$3get17h167f6826215dbd2fE
	.p2align	4, 0x90
_ZN4core4cell13Cell$LT$T$GT$3get17h167f6826215dbd2fE:
.seh_proc _ZN4core4cell13Cell$LT$T$GT$3get17h167f6826215dbd2fE
	pushq	%rax
	.seh_stackalloc 8
	.seh_endprologue
	movq	%rcx, (%rsp)
	jmp	.LBB101_1
.LBB101_1:
	movq	(%rsp), %rcx
	movq	(%rcx), %rax
	movq	8(%rcx), %rdx
	popq	%rcx
	retq
	.seh_endproc

	.def	_ZN4core4cell13Cell$LT$T$GT$3set17h6c6035858008fc3dE;
	.scl	3;
	.type	32;
	.endef
	.section	.text,"xr",one_only,_ZN4core4cell13Cell$LT$T$GT$3set17h6c6035858008fc3dE
	.p2align	4, 0x90
_ZN4core4cell13Cell$LT$T$GT$3set17h6c6035858008fc3dE:
.seh_proc _ZN4core4cell13Cell$LT$T$GT$3set17h6c6035858008fc3dE
	subq	$56, %rsp
	.seh_stackalloc 56
	.seh_endprologue
	callq	_ZN4core4cell13Cell$LT$T$GT$7replace17h5543064873ee22a3E
	movq	%rax, 40(%rsp)
	movq	%rdx, 48(%rsp)
	movq	48(%rsp), %rdx
	movq	40(%rsp), %rcx
	callq	_ZN4core3mem4drop17h5ca8810a1e77055dE
	nop
	addq	$56, %rsp
	retq
	.seh_endproc

	.def	_ZN4core4cell13Cell$LT$T$GT$7replace17h5543064873ee22a3E;
	.scl	3;
	.type	32;
	.endef
	.section	.text,"xr",one_only,_ZN4core4cell13Cell$LT$T$GT$7replace17h5543064873ee22a3E
	.p2align	4, 0x90
_ZN4core4cell13Cell$LT$T$GT$7replace17h5543064873ee22a3E:
.Lfunc_begin7:
.seh_proc _ZN4core4cell13Cell$LT$T$GT$7replace17h5543064873ee22a3E
	.seh_handler __CxxFrameHandler3, @unwind, @except
	pushq	%rbp
	.seh_pushreg %rbp
	subq	$64, %rsp
	.seh_stackalloc 64
	leaq	64(%rsp), %rbp
	.seh_setframe %rbp, 64
	.seh_endprologue
	movq	$-2, -8(%rbp)
	movb	$1, -9(%rbp)
	movb	$0, -9(%rbp)
.Ltmp26:
	callq	_ZN4core3mem7replace17he36cdec84fec6bc8E
.Ltmp27:
	movq	%rdx, -32(%rbp)
	movq	%rax, -24(%rbp)
	jmp	.LBB103_2
.LBB103_2:
	movq	-32(%rbp), %rdx
	movq	-24(%rbp), %rax
	addq	$64, %rsp
	popq	%rbp
	retq
	.seh_handlerdata
	.long	($cppxdata$_ZN4core4cell13Cell$LT$T$GT$7replace17h5543064873ee22a3E)@IMGREL
	.section	.text,"xr",one_only,_ZN4core4cell13Cell$LT$T$GT$7replace17h5543064873ee22a3E
	.seh_endproc
	.def	"?dtor$1@?0?_ZN4core4cell13Cell$LT$T$GT$7replace17h5543064873ee22a3E@4HA";
	.scl	3;
	.type	32;
	.endef
	.p2align	4, 0x90
"?dtor$1@?0?_ZN4core4cell13Cell$LT$T$GT$7replace17h5543064873ee22a3E@4HA":
.seh_proc "?dtor$1@?0?_ZN4core4cell13Cell$LT$T$GT$7replace17h5543064873ee22a3E@4HA"
.LBB103_1:
	movq	%rdx, 16(%rsp)
	pushq	%rbp
	.seh_pushreg %rbp
	subq	$32, %rsp
	.seh_stackalloc 32
	leaq	64(%rdx), %rbp
	.seh_endprologue
	testb	$1, -9(%rbp)
	jne	.LBB103_4
	jmp	.LBB103_3
.LBB103_3:
	addq	$32, %rsp
	popq	%rbp
	retq
.LBB103_4:
	jmp	.LBB103_3
.Lfunc_end7:
	.seh_handlerdata
	.section	.text,"xr",one_only,_ZN4core4cell13Cell$LT$T$GT$7replace17h5543064873ee22a3E
	.seh_endproc
	.section	.xdata,"dr",associative,_ZN4core4cell13Cell$LT$T$GT$7replace17h5543064873ee22a3E
	.p2align	2
$cppxdata$_ZN4core4cell13Cell$LT$T$GT$7replace17h5543064873ee22a3E:
	.long	429065506
	.long	1
	.long	($stateUnwindMap$_ZN4core4cell13Cell$LT$T$GT$7replace17h5543064873ee22a3E)@IMGREL
	.long	0
	.long	0
	.long	3
	.long	($ip2state$_ZN4core4cell13Cell$LT$T$GT$7replace17h5543064873ee22a3E)@IMGREL
	.long	56
	.long	0
	.long	1
$stateUnwindMap$_ZN4core4cell13Cell$LT$T$GT$7replace17h5543064873ee22a3E:
	.long	-1
	.long	"?dtor$1@?0?_ZN4core4cell13Cell$LT$T$GT$7replace17h5543064873ee22a3E@4HA"@IMGREL
$ip2state$_ZN4core4cell13Cell$LT$T$GT$7replace17h5543064873ee22a3E:
	.long	.Lfunc_begin7@IMGREL
	.long	-1
	.long	.Ltmp26@IMGREL+1
	.long	0
	.long	.Ltmp27@IMGREL+1
	.long	-1
	.section	.text,"xr",one_only,_ZN4core4cell13Cell$LT$T$GT$7replace17h5543064873ee22a3E

	.def	_ZN4core4hint21unreachable_unchecked17hf344b2d05e4ecfeaE;
	.scl	3;
	.type	32;
	.endef
	.section	.text,"xr",one_only,_ZN4core4hint21unreachable_unchecked17hf344b2d05e4ecfeaE
	.p2align	4, 0x90
_ZN4core4hint21unreachable_unchecked17hf344b2d05e4ecfeaE:
	ud2

	.def	_ZN4core4hint9black_box17h9ed10d7a569c7252E;
	.scl	3;
	.type	32;
	.endef
	.section	.text,"xr",one_only,_ZN4core4hint9black_box17h9ed10d7a569c7252E
	.p2align	4, 0x90
_ZN4core4hint9black_box17h9ed10d7a569c7252E:
	#APP
	#NO_APP
	retq

	.def	_ZN4core4iter5range110_$LT$impl$u20$core..iter..traits..iterator..Iterator$u20$for$u20$core..ops..range..RangeInclusive$LT$A$GT$$GT$4next17h1f6c2ce9b98156d3E;
	.scl	3;
	.type	32;
	.endef
	.section	.text,"xr",one_only,_ZN4core4iter5range110_$LT$impl$u20$core..iter..traits..iterator..Iterator$u20$for$u20$core..ops..range..RangeInclusive$LT$A$GT$$GT$4next17h1f6c2ce9b98156d3E
	.p2align	4, 0x90
_ZN4core4iter5range110_$LT$impl$u20$core..iter..traits..iterator..Iterator$u20$for$u20$core..ops..range..RangeInclusive$LT$A$GT$$GT$4next17h1f6c2ce9b98156d3E:
.seh_proc _ZN4core4iter5range110_$LT$impl$u20$core..iter..traits..iterator..Iterator$u20$for$u20$core..ops..range..RangeInclusive$LT$A$GT$$GT$4next17h1f6c2ce9b98156d3E
	subq	$56, %rsp
	.seh_stackalloc 56
	.seh_endprologue
	callq	_ZN107_$LT$core..ops..range..RangeInclusive$LT$T$GT$$u20$as$u20$core..iter..range..RangeInclusiveIteratorImpl$GT$9spec_next17hf1eb81b086570f39E
	movq	%rax, 40(%rsp)
	movq	%rdx, 48(%rsp)
	movq	48(%rsp), %rdx
	movq	40(%rsp), %rax
	addq	$56, %rsp
	retq
	.seh_endproc

	.def	_ZN4core5alloc6layout10size_align17hcdb4f0a126f4bcfdE;
	.scl	3;
	.type	32;
	.endef
	.section	.text,"xr",one_only,_ZN4core5alloc6layout10size_align17hcdb4f0a126f4bcfdE
	.p2align	4, 0x90
_ZN4core5alloc6layout10size_align17hcdb4f0a126f4bcfdE:
.seh_proc _ZN4core5alloc6layout10size_align17hcdb4f0a126f4bcfdE
	subq	$16, %rsp
	.seh_stackalloc 16
	.seh_endprologue
	jmp	.LBB107_2
.LBB107_2:
	movq	$4, (%rsp)
	movq	$4, 8(%rsp)
	movq	(%rsp), %rax
	movq	8(%rsp), %rdx
	addq	$16, %rsp
	retq
	.seh_endproc

	.def	_ZN4core5alloc6layout6Layout25from_size_align_unchecked17h384c034f52b7ac82E;
	.scl	3;
	.type	32;
	.endef
	.section	.text,"xr",one_only,_ZN4core5alloc6layout6Layout25from_size_align_unchecked17h384c034f52b7ac82E
	.p2align	4, 0x90
_ZN4core5alloc6layout6Layout25from_size_align_unchecked17h384c034f52b7ac82E:
.seh_proc _ZN4core5alloc6layout6Layout25from_size_align_unchecked17h384c034f52b7ac82E
	subq	$72, %rsp
	.seh_stackalloc 72
	.seh_endprologue
	movq	%rdx, 32(%rsp)
	movq	%rcx, %rax
	movq	32(%rsp), %rcx
	movq	%rax, 40(%rsp)
	callq	_ZN4core3mem11valid_align10ValidAlign13new_unchecked17hded3327bd759a8b3E
	movq	%rax, 48(%rsp)
	movq	48(%rsp), %rax
	movq	40(%rsp), %rcx
	movq	%rcx, 56(%rsp)
	movq	%rax, 64(%rsp)
	movq	56(%rsp), %rax
	movq	64(%rsp), %rdx
	addq	$72, %rsp
	retq
	.seh_endproc

	.def	_ZN4core5alloc6layout6Layout3new17h7e768b8e4fdf9497E;
	.scl	3;
	.type	32;
	.endef
	.section	.text,"xr",one_only,_ZN4core5alloc6layout6Layout3new17h7e768b8e4fdf9497E
	.p2align	4, 0x90
_ZN4core5alloc6layout6Layout3new17h7e768b8e4fdf9497E:
.seh_proc _ZN4core5alloc6layout6Layout3new17h7e768b8e4fdf9497E
	subq	$72, %rsp
	.seh_stackalloc 72
	.seh_endprologue
	callq	_ZN4core5alloc6layout10size_align17hcdb4f0a126f4bcfdE
	movq	%rax, 56(%rsp)
	movq	%rdx, 64(%rsp)
	movq	64(%rsp), %rdx
	movq	56(%rsp), %rcx
	callq	_ZN4core5alloc6layout6Layout25from_size_align_unchecked17h384c034f52b7ac82E
	movq	%rax, 40(%rsp)
	movq	%rdx, 48(%rsp)
	movq	48(%rsp), %rdx
	movq	40(%rsp), %rax
	addq	$72, %rsp
	retq
	.seh_endproc

	.def	_ZN4core5alloc6layout6Layout4size17h1b5ace7fc5cb046eE;
	.scl	3;
	.type	32;
	.endef
	.section	.text,"xr",one_only,_ZN4core5alloc6layout6Layout4size17h1b5ace7fc5cb046eE
	.p2align	4, 0x90
_ZN4core5alloc6layout6Layout4size17h1b5ace7fc5cb046eE:
	movq	(%rcx), %rax
	retq

	.def	_ZN4core5alloc6layout6Layout5align17h988ff4f8fb349d06E;
	.scl	3;
	.type	32;
	.endef
	.section	.text,"xr",one_only,_ZN4core5alloc6layout6Layout5align17h988ff4f8fb349d06E
	.p2align	4, 0x90
_ZN4core5alloc6layout6Layout5align17h988ff4f8fb349d06E:
.seh_proc _ZN4core5alloc6layout6Layout5align17h988ff4f8fb349d06E
	subq	$56, %rsp
	.seh_stackalloc 56
	.seh_endprologue
	movq	8(%rcx), %rcx
	callq	_ZN4core3mem11valid_align10ValidAlign10as_nonzero17ha0bc63e4f8436754E
	movq	%rax, 48(%rsp)
	movq	48(%rsp), %rcx
	callq	_ZN4core3num7nonzero12NonZeroUsize3get17h953dc2f7f6c6b630E
	movq	%rax, 40(%rsp)
	movq	40(%rsp), %rax
	addq	$56, %rsp
	retq
	.seh_endproc

	.def	_ZN4core5alloc6layout6Layout5array17h7f40d6793ac25117E;
	.scl	3;
	.type	32;
	.endef
	.section	.text,"xr",one_only,_ZN4core5alloc6layout6Layout5array17h7f40d6793ac25117E
	.p2align	4, 0x90
_ZN4core5alloc6layout6Layout5array17h7f40d6793ac25117E:
.seh_proc _ZN4core5alloc6layout6Layout5array17h7f40d6793ac25117E
	subq	$136, %rsp
	.seh_stackalloc 136
	.seh_endprologue
	movq	%rcx, 96(%rsp)
	movq	96(%rsp), %rdx
	movl	$8, %ecx
	callq	_ZN4core3num23_$LT$impl$u20$usize$GT$11checked_mul17h26c089d383fbc173E
	movq	%rax, 80(%rsp)
	movq	%rdx, 88(%rsp)
	movq	88(%rsp), %rdx
	movq	80(%rsp), %rcx
	callq	_ZN4core6option15Option$LT$T$GT$5ok_or17hc557e1c3b04d5f38E
	movq	%rax, 64(%rsp)
	movq	%rdx, 72(%rsp)
	movq	72(%rsp), %rdx
	movq	64(%rsp), %rcx
	callq	_ZN79_$LT$core..result..Result$LT$T$C$E$GT$$u20$as$u20$core..ops..try_trait..Try$GT$6branch17ha93ad34b3f560146E
	movq	%rdx, 128(%rsp)
	movq	%rax, 120(%rsp)
	movq	120(%rsp), %rax
	testq	%rax, %rax
	je	.LBB112_6
	jmp	.LBB112_12
.LBB112_12:
	jmp	.LBB112_7
	ud2
.LBB112_6:
	movq	128(%rsp), %rax
	movq	%rax, 56(%rsp)
	jmp	.LBB112_10
.LBB112_7:
	leaq	__unnamed_9(%rip), %rcx
	callq	_ZN153_$LT$core..result..Result$LT$T$C$F$GT$$u20$as$u20$core..ops..try_trait..FromResidual$LT$core..result..Result$LT$core..convert..Infallible$C$E$GT$$GT$$GT$13from_residual17h206cce60ca5c6bfbE
	movq	%rdx, 112(%rsp)
	movq	%rax, 104(%rsp)
	jmp	.LBB112_9
.LBB112_9:
	movq	104(%rsp), %rax
	movq	112(%rsp), %rdx
	addq	$136, %rsp
	retq
.LBB112_10:
	movq	56(%rsp), %rcx
	movl	$8, %edx
	callq	_ZN4core5alloc6layout6Layout25from_size_align_unchecked17h384c034f52b7ac82E
	movq	%rax, 40(%rsp)
	movq	%rdx, 48(%rsp)
	movq	48(%rsp), %rax
	movq	40(%rsp), %rcx
	movq	%rcx, 104(%rsp)
	movq	%rax, 112(%rsp)
	jmp	.LBB112_9
	.seh_endproc

	.def	_ZN4core5alloc6layout6Layout8dangling17h080f6884de83404cE;
	.scl	3;
	.type	32;
	.endef
	.section	.text,"xr",one_only,_ZN4core5alloc6layout6Layout8dangling17h080f6884de83404cE
	.p2align	4, 0x90
_ZN4core5alloc6layout6Layout8dangling17h080f6884de83404cE:
.seh_proc _ZN4core5alloc6layout6Layout8dangling17h080f6884de83404cE
	subq	$72, %rsp
	.seh_stackalloc 72
	.seh_endprologue
	callq	_ZN4core5alloc6layout6Layout5align17h988ff4f8fb349d06E
	movq	%rax, 56(%rsp)
	movq	56(%rsp), %rax
	movq	%rax, 64(%rsp)
	movq	64(%rsp), %rax
	movq	%rax, 48(%rsp)
	movq	48(%rsp), %rcx
	callq	_ZN4core3ptr8non_null16NonNull$LT$T$GT$13new_unchecked17h3c2e23cb5eeb7993E
	movq	%rax, 40(%rsp)
	movq	40(%rsp), %rax
	addq	$72, %rsp
	retq
	.seh_endproc

	.def	_ZN4core5clone5impls52_$LT$impl$u20$core..clone..Clone$u20$for$u20$i64$GT$5clone17h154577023fb3deb2E;
	.scl	3;
	.type	32;
	.endef
	.section	.text,"xr",one_only,_ZN4core5clone5impls52_$LT$impl$u20$core..clone..Clone$u20$for$u20$i64$GT$5clone17h154577023fb3deb2E
	.p2align	4, 0x90
_ZN4core5clone5impls52_$LT$impl$u20$core..clone..Clone$u20$for$u20$i64$GT$5clone17h154577023fb3deb2E:
	movq	(%rcx), %rax
	retq

	.def	_ZN4core5slice29_$LT$impl$u20$$u5b$T$u5d$$GT$3len17h8d46209724a985a5E;
	.scl	3;
	.type	32;
	.endef
	.section	.text,"xr",one_only,_ZN4core5slice29_$LT$impl$u20$$u5b$T$u5d$$GT$3len17h8d46209724a985a5E
	.p2align	4, 0x90
_ZN4core5slice29_$LT$impl$u20$$u5b$T$u5d$$GT$3len17h8d46209724a985a5E:
.seh_proc _ZN4core5slice29_$LT$impl$u20$$u5b$T$u5d$$GT$3len17h8d46209724a985a5E
	subq	$16, %rsp
	.seh_stackalloc 16
	.seh_endprologue
	movq	%rcx, (%rsp)
	movq	%rdx, 8(%rsp)
	movq	8(%rsp), %rax
	addq	$16, %rsp
	retq
	.seh_endproc

	.def	_ZN4core6option15Option$LT$T$GT$5ok_or17h70ce59080f86f12aE;
	.scl	3;
	.type	32;
	.endef
	.section	.text,"xr",one_only,_ZN4core6option15Option$LT$T$GT$5ok_or17h70ce59080f86f12aE
	.p2align	4, 0x90
_ZN4core6option15Option$LT$T$GT$5ok_or17h70ce59080f86f12aE:
.seh_proc _ZN4core6option15Option$LT$T$GT$5ok_or17h70ce59080f86f12aE
	subq	$56, %rsp
	.seh_stackalloc 56
	.seh_endprologue
	movq	%r9, (%rsp)
	movq	%rcx, 8(%rsp)
	movq	%rcx, 16(%rsp)
	movq	96(%rsp), %rax
	movq	%rax, 24(%rsp)
	movq	%rdx, 32(%rsp)
	movq	%r8, 40(%rsp)
	movb	$1, 55(%rsp)
	movq	32(%rsp), %rax
	testq	%rax, %rax
	je	.LBB116_2
	jmp	.LBB116_7
.LBB116_7:
	jmp	.LBB116_3
	ud2
.LBB116_2:
	movq	8(%rsp), %rax
	movq	24(%rsp), %rcx
	movq	(%rsp), %rdx
	movb	$0, 55(%rsp)
	movq	%rdx, 8(%rax)
	movq	%rcx, 16(%rax)
	movq	$1, (%rax)
	jmp	.LBB116_4
.LBB116_3:
	movq	8(%rsp), %rax
	movq	40(%rsp), %rcx
	movq	%rcx, 8(%rax)
	movq	$0, (%rax)
.LBB116_4:
	testb	$1, 55(%rsp)
	jne	.LBB116_6
.LBB116_5:
	movq	16(%rsp), %rax
	addq	$56, %rsp
	retq
.LBB116_6:
	jmp	.LBB116_5
	.seh_endproc

	.def	_ZN4core6option15Option$LT$T$GT$5ok_or17h91438de1224863eeE;
	.scl	3;
	.type	32;
	.endef
	.section	.text,"xr",one_only,_ZN4core6option15Option$LT$T$GT$5ok_or17h91438de1224863eeE
	.p2align	4, 0x90
_ZN4core6option15Option$LT$T$GT$5ok_or17h91438de1224863eeE:
.seh_proc _ZN4core6option15Option$LT$T$GT$5ok_or17h91438de1224863eeE
	subq	$24, %rsp
	.seh_stackalloc 24
	.seh_endprologue
	movq	%rcx, (%rsp)
	movb	$1, 23(%rsp)
	movq	(%rsp), %rax
	testq	%rax, %rax
	setne	%al
	movzbl	%al, %eax
	je	.LBB117_2
	jmp	.LBB117_7
.LBB117_7:
	jmp	.LBB117_3
	ud2
.LBB117_2:
	movb	$0, 23(%rsp)
	movq	$0, 8(%rsp)
	jmp	.LBB117_4
.LBB117_3:
	movq	(%rsp), %rax
	movq	%rax, 8(%rsp)
.LBB117_4:
	testb	$1, 23(%rsp)
	jne	.LBB117_6
.LBB117_5:
	movq	8(%rsp), %rax
	addq	$24, %rsp
	retq
.LBB117_6:
	jmp	.LBB117_5
	.seh_endproc

	.def	_ZN4core6option15Option$LT$T$GT$5ok_or17ha63d195b000cca8dE;
	.scl	3;
	.type	32;
	.endef
	.section	.text,"xr",one_only,_ZN4core6option15Option$LT$T$GT$5ok_or17ha63d195b000cca8dE
	.p2align	4, 0x90
_ZN4core6option15Option$LT$T$GT$5ok_or17ha63d195b000cca8dE:
.seh_proc _ZN4core6option15Option$LT$T$GT$5ok_or17ha63d195b000cca8dE
	subq	$24, %rsp
	.seh_stackalloc 24
	.seh_endprologue
	movq	%rcx, (%rsp)
	movb	$1, 23(%rsp)
	movq	(%rsp), %rax
	testq	%rax, %rax
	setne	%al
	movzbl	%al, %eax
	je	.LBB118_2
	jmp	.LBB118_7
.LBB118_7:
	jmp	.LBB118_3
	ud2
.LBB118_2:
	movb	$0, 23(%rsp)
	movq	$0, 8(%rsp)
	jmp	.LBB118_4
.LBB118_3:
	movq	(%rsp), %rax
	movq	%rax, 8(%rsp)
.LBB118_4:
	testb	$1, 23(%rsp)
	jne	.LBB118_6
.LBB118_5:
	movq	8(%rsp), %rax
	addq	$24, %rsp
	retq
.LBB118_6:
	jmp	.LBB118_5
	.seh_endproc

	.def	_ZN4core6option15Option$LT$T$GT$5ok_or17hc557e1c3b04d5f38E;
	.scl	3;
	.type	32;
	.endef
	.section	.text,"xr",one_only,_ZN4core6option15Option$LT$T$GT$5ok_or17hc557e1c3b04d5f38E
	.p2align	4, 0x90
_ZN4core6option15Option$LT$T$GT$5ok_or17hc557e1c3b04d5f38E:
.seh_proc _ZN4core6option15Option$LT$T$GT$5ok_or17hc557e1c3b04d5f38E
	subq	$40, %rsp
	.seh_stackalloc 40
	.seh_endprologue
	movq	%rcx, (%rsp)
	movq	%rdx, 8(%rsp)
	movb	$1, 39(%rsp)
	movq	(%rsp), %rax
	testq	%rax, %rax
	je	.LBB119_2
	jmp	.LBB119_7
.LBB119_7:
	jmp	.LBB119_3
	ud2
.LBB119_2:
	movb	$0, 39(%rsp)
	movq	$1, 16(%rsp)
	jmp	.LBB119_4
.LBB119_3:
	movq	8(%rsp), %rax
	movq	%rax, 24(%rsp)
	movq	$0, 16(%rsp)
.LBB119_4:
	testb	$1, 39(%rsp)
	jne	.LBB119_6
.LBB119_5:
	movq	16(%rsp), %rax
	movq	24(%rsp), %rdx
	addq	$40, %rsp
	retq
.LBB119_6:
	jmp	.LBB119_5
	.seh_endproc

	.def	_ZN4core6result19Result$LT$T$C$E$GT$16unwrap_unchecked17hc36a523d396da1d5E;
	.scl	3;
	.type	32;
	.endef
	.section	.text,"xr",one_only,_ZN4core6result19Result$LT$T$C$E$GT$16unwrap_unchecked17hc36a523d396da1d5E
	.p2align	4, 0x90
_ZN4core6result19Result$LT$T$C$E$GT$16unwrap_unchecked17hc36a523d396da1d5E:
.Lfunc_begin8:
.seh_proc _ZN4core6result19Result$LT$T$C$E$GT$16unwrap_unchecked17hc36a523d396da1d5E
	.seh_handler __CxxFrameHandler3, @unwind, @except
	pushq	%rbp
	.seh_pushreg %rbp
	subq	$80, %rsp
	.seh_stackalloc 80
	leaq	80(%rsp), %rbp
	.seh_setframe %rbp, 80
	.seh_endprologue
	movq	$-2, -8(%rbp)
	movq	%rcx, -24(%rbp)
	movq	%rdx, -16(%rbp)
	movq	-16(%rbp), %rax
	testq	%rax, %rax
	sete	%al
	movzbl	%al, %eax
	jne	.LBB120_2
	jmp	.LBB120_11
.LBB120_11:
	jmp	.LBB120_3
	ud2
.LBB120_2:
	movq	-24(%rbp), %rax
	movq	%rax, -40(%rbp)
	movq	-16(%rbp), %rax
	movq	%rax, -32(%rbp)
	xorl	%eax, %eax
	movl	$1, %ecx
	cmpq	$0, -16(%rbp)
	cmoveq	%rcx, %rax
	cmpq	$0, %rax
	je	.LBB120_9
	jmp	.LBB120_10
.LBB120_3:
.Ltmp28:
	callq	_ZN4core4hint21unreachable_unchecked17hf344b2d05e4ecfeaE
.Ltmp29:
	jmp	.LBB120_5
.LBB120_5:
	ud2
.LBB120_9:
	movq	-32(%rbp), %rdx
	movq	-40(%rbp), %rax
	addq	$80, %rsp
	popq	%rbp
	retq
.LBB120_10:
	jmp	.LBB120_9
	.seh_handlerdata
	.long	($cppxdata$_ZN4core6result19Result$LT$T$C$E$GT$16unwrap_unchecked17hc36a523d396da1d5E)@IMGREL
	.section	.text,"xr",one_only,_ZN4core6result19Result$LT$T$C$E$GT$16unwrap_unchecked17hc36a523d396da1d5E
	.seh_endproc
	.def	"?dtor$4@?0?_ZN4core6result19Result$LT$T$C$E$GT$16unwrap_unchecked17hc36a523d396da1d5E@4HA";
	.scl	3;
	.type	32;
	.endef
	.p2align	4, 0x90
"?dtor$4@?0?_ZN4core6result19Result$LT$T$C$E$GT$16unwrap_unchecked17hc36a523d396da1d5E@4HA":
.seh_proc "?dtor$4@?0?_ZN4core6result19Result$LT$T$C$E$GT$16unwrap_unchecked17hc36a523d396da1d5E@4HA"
.LBB120_4:
	movq	%rdx, 16(%rsp)
	pushq	%rbp
	.seh_pushreg %rbp
	subq	$32, %rsp
	.seh_stackalloc 32
	leaq	80(%rdx), %rbp
	.seh_endprologue
	xorl	%eax, %eax
	movl	$1, %ecx
	cmpq	$0, -16(%rbp)
	cmoveq	%rcx, %rax
	cmpq	$0, %rax
	je	.LBB120_6
	jmp	.LBB120_7
.LBB120_6:
	jmp	.LBB120_8
.LBB120_7:
	jmp	.LBB120_8
.LBB120_8:
	addq	$32, %rsp
	popq	%rbp
	retq
.Lfunc_end8:
	.seh_handlerdata
	.section	.text,"xr",one_only,_ZN4core6result19Result$LT$T$C$E$GT$16unwrap_unchecked17hc36a523d396da1d5E
	.seh_endproc
	.section	.xdata,"dr",associative,_ZN4core6result19Result$LT$T$C$E$GT$16unwrap_unchecked17hc36a523d396da1d5E
	.p2align	2
$cppxdata$_ZN4core6result19Result$LT$T$C$E$GT$16unwrap_unchecked17hc36a523d396da1d5E:
	.long	429065506
	.long	1
	.long	($stateUnwindMap$_ZN4core6result19Result$LT$T$C$E$GT$16unwrap_unchecked17hc36a523d396da1d5E)@IMGREL
	.long	0
	.long	0
	.long	3
	.long	($ip2state$_ZN4core6result19Result$LT$T$C$E$GT$16unwrap_unchecked17hc36a523d396da1d5E)@IMGREL
	.long	72
	.long	0
	.long	1
$stateUnwindMap$_ZN4core6result19Result$LT$T$C$E$GT$16unwrap_unchecked17hc36a523d396da1d5E:
	.long	-1
	.long	"?dtor$4@?0?_ZN4core6result19Result$LT$T$C$E$GT$16unwrap_unchecked17hc36a523d396da1d5E@4HA"@IMGREL
$ip2state$_ZN4core6result19Result$LT$T$C$E$GT$16unwrap_unchecked17hc36a523d396da1d5E:
	.long	.Lfunc_begin8@IMGREL
	.long	-1
	.long	.Ltmp28@IMGREL+1
	.long	0
	.long	.Ltmp29@IMGREL+1
	.long	-1
	.section	.text,"xr",one_only,_ZN4core6result19Result$LT$T$C$E$GT$16unwrap_unchecked17hc36a523d396da1d5E

	.def	_ZN4core6result19Result$LT$T$C$E$GT$6expect17h2d2ff7d499e00810E;
	.scl	3;
	.type	32;
	.endef
	.section	.text,"xr",one_only,_ZN4core6result19Result$LT$T$C$E$GT$6expect17h2d2ff7d499e00810E
	.p2align	4, 0x90
_ZN4core6result19Result$LT$T$C$E$GT$6expect17h2d2ff7d499e00810E:
.Lfunc_begin9:
.seh_proc _ZN4core6result19Result$LT$T$C$E$GT$6expect17h2d2ff7d499e00810E
	.seh_handler __CxxFrameHandler3, @unwind, @except
	pushq	%rbp
	.seh_pushreg %rbp
	subq	$96, %rsp
	.seh_stackalloc 96
	leaq	96(%rsp), %rbp
	.seh_setframe %rbp, 96
	.seh_endprologue
	movq	$-2, -8(%rbp)
	movq	%r9, -48(%rbp)
	movq	%r8, -40(%rbp)
	movq	%rdx, -32(%rbp)
	movq	%rcx, -24(%rbp)
	movq	(%rcx), %rax
	testq	%rax, %rax
	je	.LBB121_2
	jmp	.LBB121_6
.LBB121_6:
	jmp	.LBB121_3
	ud2
.LBB121_2:
	movq	-24(%rbp), %rcx
	movq	8(%rcx), %rax
	movq	16(%rcx), %rdx
	addq	$96, %rsp
	popq	%rbp
	retq
.LBB121_3:
.Ltmp30:
	movq	-40(%rbp), %rdx
	movq	-32(%rbp), %rcx
	movq	-48(%rbp), %r8
	movq	%rsp, %rax
	movq	%r8, 32(%rax)
	leaq	__unnamed_10(%rip), %r9
	leaq	-16(%rbp), %r8
	callq	_ZN4core6result13unwrap_failed17h08b37b9bcefec543E
.Ltmp31:
	jmp	.LBB121_5
.LBB121_5:
	ud2
	.seh_handlerdata
	.long	($cppxdata$_ZN4core6result19Result$LT$T$C$E$GT$6expect17h2d2ff7d499e00810E)@IMGREL
	.section	.text,"xr",one_only,_ZN4core6result19Result$LT$T$C$E$GT$6expect17h2d2ff7d499e00810E
	.seh_endproc
	.def	"?dtor$4@?0?_ZN4core6result19Result$LT$T$C$E$GT$6expect17h2d2ff7d499e00810E@4HA";
	.scl	3;
	.type	32;
	.endef
	.p2align	4, 0x90
"?dtor$4@?0?_ZN4core6result19Result$LT$T$C$E$GT$6expect17h2d2ff7d499e00810E@4HA":
.seh_proc "?dtor$4@?0?_ZN4core6result19Result$LT$T$C$E$GT$6expect17h2d2ff7d499e00810E@4HA"
.LBB121_4:
	movq	%rdx, 16(%rsp)
	pushq	%rbp
	.seh_pushreg %rbp
	subq	$48, %rsp
	.seh_stackalloc 48
	leaq	96(%rdx), %rbp
	.seh_endprologue
	addq	$48, %rsp
	popq	%rbp
	retq
.Lfunc_end9:
	.seh_handlerdata
	.section	.text,"xr",one_only,_ZN4core6result19Result$LT$T$C$E$GT$6expect17h2d2ff7d499e00810E
	.seh_endproc
	.section	.xdata,"dr",associative,_ZN4core6result19Result$LT$T$C$E$GT$6expect17h2d2ff7d499e00810E
	.p2align	2
$cppxdata$_ZN4core6result19Result$LT$T$C$E$GT$6expect17h2d2ff7d499e00810E:
	.long	429065506
	.long	1
	.long	($stateUnwindMap$_ZN4core6result19Result$LT$T$C$E$GT$6expect17h2d2ff7d499e00810E)@IMGREL
	.long	0
	.long	0
	.long	3
	.long	($ip2state$_ZN4core6result19Result$LT$T$C$E$GT$6expect17h2d2ff7d499e00810E)@IMGREL
	.long	88
	.long	0
	.long	1
$stateUnwindMap$_ZN4core6result19Result$LT$T$C$E$GT$6expect17h2d2ff7d499e00810E:
	.long	-1
	.long	"?dtor$4@?0?_ZN4core6result19Result$LT$T$C$E$GT$6expect17h2d2ff7d499e00810E@4HA"@IMGREL
$ip2state$_ZN4core6result19Result$LT$T$C$E$GT$6expect17h2d2ff7d499e00810E:
	.long	.Lfunc_begin9@IMGREL
	.long	-1
	.long	.Ltmp30@IMGREL+1
	.long	0
	.long	.Ltmp31@IMGREL+1
	.long	-1
	.section	.text,"xr",one_only,_ZN4core6result19Result$LT$T$C$E$GT$6expect17h2d2ff7d499e00810E

	.def	_ZN4core6result19Result$LT$T$C$E$GT$7map_err17h077c8cba0a2fd6b4E;
	.scl	3;
	.type	32;
	.endef
	.section	.text,"xr",one_only,_ZN4core6result19Result$LT$T$C$E$GT$7map_err17h077c8cba0a2fd6b4E
	.p2align	4, 0x90
_ZN4core6result19Result$LT$T$C$E$GT$7map_err17h077c8cba0a2fd6b4E:
.seh_proc _ZN4core6result19Result$LT$T$C$E$GT$7map_err17h077c8cba0a2fd6b4E
	subq	$88, %rsp
	.seh_stackalloc 88
	.seh_endprologue
	movq	%rcx, 48(%rsp)
	movq	%rcx, 56(%rsp)
	movq	%rdx, 64(%rsp)
	movq	%r8, 72(%rsp)
	movb	$1, 87(%rsp)
	movq	72(%rsp), %rax
	testq	%rax, %rax
	sete	%al
	movzbl	%al, %eax
	jne	.LBB122_2
	jmp	.LBB122_8
.LBB122_8:
	jmp	.LBB122_3
	ud2
.LBB122_2:
	movq	48(%rsp), %rax
	movq	64(%rsp), %rdx
	movq	72(%rsp), %rcx
	movq	%rdx, 8(%rax)
	movq	%rcx, 16(%rax)
	movq	$0, (%rax)
	jmp	.LBB122_5
.LBB122_3:
	movb	$0, 87(%rsp)
	callq	_ZN5alloc7raw_vec11finish_grow28_$u7b$$u7b$closure$u7d$$u7d$17h57cb181ec4424c6bE
	movq	%rax, 32(%rsp)
	movq	%rdx, 40(%rsp)
	movq	48(%rsp), %rax
	movq	40(%rsp), %rcx
	movq	32(%rsp), %rdx
	movq	%rdx, 8(%rax)
	movq	%rcx, 16(%rax)
	movq	$1, (%rax)
.LBB122_5:
	testb	$1, 87(%rsp)
	jne	.LBB122_7
.LBB122_6:
	movq	56(%rsp), %rax
	addq	$88, %rsp
	retq
.LBB122_7:
	jmp	.LBB122_6
	.seh_endproc

	.def	_ZN4core6result19Result$LT$T$C$E$GT$7map_err17h0c37b28b05dbd9f6E;
	.scl	3;
	.type	32;
	.endef
	.section	.text,"xr",one_only,_ZN4core6result19Result$LT$T$C$E$GT$7map_err17h0c37b28b05dbd9f6E
	.p2align	4, 0x90
_ZN4core6result19Result$LT$T$C$E$GT$7map_err17h0c37b28b05dbd9f6E:
.seh_proc _ZN4core6result19Result$LT$T$C$E$GT$7map_err17h0c37b28b05dbd9f6E
	subq	$104, %rsp
	.seh_stackalloc 104
	.seh_endprologue
	movq	%r9, 56(%rsp)
	movq	%rcx, 64(%rsp)
	movq	%rcx, 72(%rsp)
	movq	%rdx, 80(%rsp)
	movq	%r8, 88(%rsp)
	movb	$1, 103(%rsp)
	movq	80(%rsp), %rax
	testq	%rax, %rax
	sete	%al
	movzbl	%al, %eax
	jne	.LBB123_2
	jmp	.LBB123_8
.LBB123_8:
	jmp	.LBB123_3
	ud2
.LBB123_2:
	movq	64(%rsp), %rax
	movq	80(%rsp), %rdx
	movq	88(%rsp), %rcx
	movq	%rdx, 8(%rax)
	movq	%rcx, 16(%rax)
	movq	$0, (%rax)
	jmp	.LBB123_5
.LBB123_3:
	movq	56(%rsp), %rcx
	movb	$0, 103(%rsp)
	callq	_ZN5alloc7raw_vec11finish_grow28_$u7b$$u7b$closure$u7d$$u7d$17h0d361f16966a7dc8E
	movq	%rax, 40(%rsp)
	movq	%rdx, 48(%rsp)
	movq	64(%rsp), %rax
	movq	48(%rsp), %rcx
	movq	40(%rsp), %rdx
	movq	%rdx, 8(%rax)
	movq	%rcx, 16(%rax)
	movq	$1, (%rax)
.LBB123_5:
	testb	$1, 103(%rsp)
	jne	.LBB123_7
.LBB123_6:
	movq	72(%rsp), %rax
	addq	$104, %rsp
	retq
.LBB123_7:
	jmp	.LBB123_6
	.seh_endproc

	.def	_ZN4core6result19Result$LT$T$C$E$GT$7map_err17h3de9abdc75d273b8E;
	.scl	3;
	.type	32;
	.endef
	.section	.text,"xr",one_only,_ZN4core6result19Result$LT$T$C$E$GT$7map_err17h3de9abdc75d273b8E
	.p2align	4, 0x90
_ZN4core6result19Result$LT$T$C$E$GT$7map_err17h3de9abdc75d273b8E:
.seh_proc _ZN4core6result19Result$LT$T$C$E$GT$7map_err17h3de9abdc75d273b8E
	subq	$104, %rsp
	.seh_stackalloc 104
	.seh_endprologue
	movq	%rcx, 48(%rsp)
	movq	%rdx, 56(%rsp)
	movb	$1, 103(%rsp)
	movq	56(%rsp), %rax
	movabsq	$9223372036854775807, %rcx
	addq	%rcx, %rax
	setne	%al
	movzbl	%al, %eax
	je	.LBB124_2
	jmp	.LBB124_8
.LBB124_8:
	jmp	.LBB124_3
	ud2
.LBB124_2:
	movabsq	$-9223372036854775807, %rax
	movq	%rax, 72(%rsp)
	jmp	.LBB124_5
.LBB124_3:
	movq	48(%rsp), %rcx
	movq	56(%rsp), %rax
	movb	$0, 103(%rsp)
	movq	%rcx, 80(%rsp)
	movq	%rax, 88(%rsp)
	movq	80(%rsp), %rcx
	movq	88(%rsp), %rdx
	callq	_ZN5alloc7raw_vec14handle_reserve28_$u7b$$u7b$closure$u7d$$u7d$17hbaf02e1f16fe61ebE
	movq	%rax, 32(%rsp)
	movq	%rdx, 40(%rsp)
	movq	40(%rsp), %rax
	movq	32(%rsp), %rcx
	movq	%rcx, 64(%rsp)
	movq	%rax, 72(%rsp)
.LBB124_5:
	testb	$1, 103(%rsp)
	jne	.LBB124_7
.LBB124_6:
	movq	64(%rsp), %rax
	movq	72(%rsp), %rdx
	addq	$104, %rsp
	retq
.LBB124_7:
	jmp	.LBB124_6
	.seh_endproc

	.def	_ZN4core9core_arch3x864sse214_mm_load_si12817h2de96fa51bc59c5fE;
	.scl	3;
	.type	32;
	.endef
	.section	.text,"xr",one_only,_ZN4core9core_arch3x864sse214_mm_load_si12817h2de96fa51bc59c5fE
	.p2align	4, 0x90
_ZN4core9core_arch3x864sse214_mm_load_si12817h2de96fa51bc59c5fE:
	movq	%rcx, %rax
	movdqa	(%rdx), %xmm0
	movdqa	%xmm0, (%rcx)
	retq

	.def	_ZN4core9core_arch3x864sse217_mm_movemask_epi817hb8821ea8f6de486dE;
	.scl	3;
	.type	32;
	.endef
	.section	.text,"xr",one_only,_ZN4core9core_arch3x864sse217_mm_movemask_epi817hb8821ea8f6de486dE
	.p2align	4, 0x90
_ZN4core9core_arch3x864sse217_mm_movemask_epi817hb8821ea8f6de486dE:
.seh_proc _ZN4core9core_arch3x864sse217_mm_movemask_epi817hb8821ea8f6de486dE
	subq	$104, %rsp
	.seh_stackalloc 104
	.seh_endprologue
	movdqa	(%rcx), %xmm0
	movdqa	%xmm0, 80(%rsp)
	leaq	64(%rsp), %rcx
	leaq	80(%rsp), %rdx
	callq	_ZN4core9core_arch3x868m128iExt8as_i8x1617hcbc05b6075a4e007E
	movdqa	64(%rsp), %xmm0
	movaps	%xmm0, 48(%rsp)
	movaps	48(%rsp), %xmm0
	pmovmskb	%xmm0, %eax
	movl	%eax, 44(%rsp)
	movl	44(%rsp), %eax
	addq	$104, %rsp
	retq
	.seh_endproc

	.def	_ZN4core9core_arch3x868m128iExt8as_i8x1617hcbc05b6075a4e007E;
	.scl	3;
	.type	32;
	.endef
	.section	.text,"xr",one_only,_ZN4core9core_arch3x868m128iExt8as_i8x1617hcbc05b6075a4e007E
	.p2align	4, 0x90
_ZN4core9core_arch3x868m128iExt8as_i8x1617hcbc05b6075a4e007E:
.seh_proc _ZN4core9core_arch3x868m128iExt8as_i8x1617hcbc05b6075a4e007E
	subq	$104, %rsp
	.seh_stackalloc 104
	.seh_endprologue
	movq	%rcx, 32(%rsp)
	movq	%rcx, 40(%rsp)
	movdqa	(%rdx), %xmm0
	movdqa	%xmm0, 80(%rsp)
	leaq	64(%rsp), %rcx
	leaq	80(%rsp), %rdx
	callq	_ZN80_$LT$core..core_arch..x86..__m128i$u20$as$u20$core..core_arch..x86..m128iExt$GT$8as_m128i17h2111f3052147d03aE
	movdqa	64(%rsp), %xmm0
	movaps	%xmm0, 48(%rsp)
	movq	32(%rsp), %rax
	movaps	48(%rsp), %xmm0
	movdqa	%xmm0, (%rax)
	movq	40(%rsp), %rax
	addq	$104, %rsp
	retq
	.seh_endproc

	.def	_ZN50_$LT$T$u20$as$u20$core..convert..From$LT$T$GT$$GT$4from17h0995537dc509657cE;
	.scl	3;
	.type	32;
	.endef
	.section	.text,"xr",one_only,_ZN50_$LT$T$u20$as$u20$core..convert..From$LT$T$GT$$GT$4from17h0995537dc509657cE
	.p2align	4, 0x90
_ZN50_$LT$T$u20$as$u20$core..convert..From$LT$T$GT$$GT$4from17h0995537dc509657cE:
	retq

	.def	_ZN50_$LT$T$u20$as$u20$core..convert..From$LT$T$GT$$GT$4from17h218d4965c26a1dbcE;
	.scl	3;
	.type	32;
	.endef
	.section	.text,"xr",one_only,_ZN50_$LT$T$u20$as$u20$core..convert..From$LT$T$GT$$GT$4from17h218d4965c26a1dbcE
	.p2align	4, 0x90
_ZN50_$LT$T$u20$as$u20$core..convert..From$LT$T$GT$$GT$4from17h218d4965c26a1dbcE:
	movq	%rcx, %rax
	retq

	.def	_ZN50_$LT$T$u20$as$u20$core..convert..From$LT$T$GT$$GT$4from17h794150060db9bd4dE;
	.scl	3;
	.type	32;
	.endef
	.section	.text,"xr",one_only,_ZN50_$LT$T$u20$as$u20$core..convert..From$LT$T$GT$$GT$4from17h794150060db9bd4dE
	.p2align	4, 0x90
_ZN50_$LT$T$u20$as$u20$core..convert..From$LT$T$GT$$GT$4from17h794150060db9bd4dE:
	retq

	.def	_ZN50_$LT$T$u20$as$u20$core..convert..From$LT$T$GT$$GT$4from17h9d62d580acbfefa2E;
	.scl	3;
	.type	32;
	.endef
	.section	.text,"xr",one_only,_ZN50_$LT$T$u20$as$u20$core..convert..From$LT$T$GT$$GT$4from17h9d62d580acbfefa2E
	.p2align	4, 0x90
_ZN50_$LT$T$u20$as$u20$core..convert..From$LT$T$GT$$GT$4from17h9d62d580acbfefa2E:
	retq

	.def	_ZN50_$LT$T$u20$as$u20$core..convert..Into$LT$U$GT$$GT$4into17h028a4593fa4f0aa4E;
	.scl	3;
	.type	32;
	.endef
	.section	.text,"xr",one_only,_ZN50_$LT$T$u20$as$u20$core..convert..Into$LT$U$GT$$GT$4into17h028a4593fa4f0aa4E
	.p2align	4, 0x90
_ZN50_$LT$T$u20$as$u20$core..convert..Into$LT$U$GT$$GT$4into17h028a4593fa4f0aa4E:
.seh_proc _ZN50_$LT$T$u20$as$u20$core..convert..Into$LT$U$GT$$GT$4into17h028a4593fa4f0aa4E
	subq	$56, %rsp
	.seh_stackalloc 56
	.seh_endprologue
	callq	_ZN122_$LT$alloc..collections..TryReserveError$u20$as$u20$core..convert..From$LT$alloc..collections..TryReserveErrorKind$GT$$GT$4from17hbdbe436c663d0411E
	movq	%rax, 40(%rsp)
	movq	%rdx, 48(%rsp)
	movq	48(%rsp), %rdx
	movq	40(%rsp), %rax
	addq	$56, %rsp
	retq
	.seh_endproc

	.def	_ZN50_$LT$T$u20$as$u20$core..convert..Into$LT$U$GT$$GT$4into17h1f7eda260e668591E;
	.scl	3;
	.type	32;
	.endef
	.section	.text,"xr",one_only,_ZN50_$LT$T$u20$as$u20$core..convert..Into$LT$U$GT$$GT$4into17h1f7eda260e668591E
	.p2align	4, 0x90
_ZN50_$LT$T$u20$as$u20$core..convert..Into$LT$U$GT$$GT$4into17h1f7eda260e668591E:
.seh_proc _ZN50_$LT$T$u20$as$u20$core..convert..Into$LT$U$GT$$GT$4into17h1f7eda260e668591E
	subq	$40, %rsp
	.seh_stackalloc 40
	.seh_endprologue
	callq	_ZN119_$LT$core..ptr..non_null..NonNull$LT$T$GT$$u20$as$u20$core..convert..From$LT$core..ptr..unique..Unique$LT$T$GT$$GT$$GT$4from17h8d41f71b7abe4af4E
	movq	%rax, 32(%rsp)
	movq	32(%rsp), %rax
	addq	$40, %rsp
	retq
	.seh_endproc

	.def	_ZN54_$LT$$LP$$RP$$u20$as$u20$std..process..Termination$GT$6report17ha9b7f17fdb3ef236E;
	.scl	3;
	.type	32;
	.endef
	.section	.text,"xr",one_only,_ZN54_$LT$$LP$$RP$$u20$as$u20$std..process..Termination$GT$6report17ha9b7f17fdb3ef236E
	.p2align	4, 0x90
_ZN54_$LT$$LP$$RP$$u20$as$u20$std..process..Termination$GT$6report17ha9b7f17fdb3ef236E:
	xorl	%eax, %eax
	retq

	.def	_ZN5alloc11collections15TryReserveError4kind17ha09d2c0b588dce03E;
	.scl	3;
	.type	32;
	.endef
	.section	.text,"xr",one_only,_ZN5alloc11collections15TryReserveError4kind17ha09d2c0b588dce03E
	.p2align	4, 0x90
_ZN5alloc11collections15TryReserveError4kind17ha09d2c0b588dce03E:
.seh_proc _ZN5alloc11collections15TryReserveError4kind17ha09d2c0b588dce03E
	subq	$56, %rsp
	.seh_stackalloc 56
	.seh_endprologue
	callq	_ZN78_$LT$alloc..collections..TryReserveErrorKind$u20$as$u20$core..clone..Clone$GT$5clone17h1210c3b70e8fb284E
	movq	%rax, 40(%rsp)
	movq	%rdx, 48(%rsp)
	movq	48(%rsp), %rdx
	movq	40(%rsp), %rax
	addq	$56, %rsp
	retq
	.seh_endproc

	.def	_ZN5alloc3vec16Vec$LT$T$C$A$GT$10as_mut_ptr17h2406b1cd4da1fd53E;
	.scl	3;
	.type	32;
	.endef
	.section	.text,"xr",one_only,_ZN5alloc3vec16Vec$LT$T$C$A$GT$10as_mut_ptr17h2406b1cd4da1fd53E
	.p2align	4, 0x90
_ZN5alloc3vec16Vec$LT$T$C$A$GT$10as_mut_ptr17h2406b1cd4da1fd53E:
.seh_proc _ZN5alloc3vec16Vec$LT$T$C$A$GT$10as_mut_ptr17h2406b1cd4da1fd53E
	subq	$40, %rsp
	.seh_stackalloc 40
	.seh_endprologue
	callq	_ZN5alloc7raw_vec19RawVec$LT$T$C$A$GT$3ptr17hfc952ef1e7d64c8fE
	movq	%rax, 32(%rsp)
	movq	32(%rsp), %rcx
	callq	_ZN4core3ptr7mut_ptr31_$LT$impl$u20$$BP$mut$u20$T$GT$7is_null17h051c833b9731c34fE
	movq	32(%rsp), %rax
	addq	$40, %rsp
	retq
	.seh_endproc

	.def	_ZN5alloc3vec16Vec$LT$T$C$A$GT$17from_raw_parts_in17h32f4ad4f8d3df388E;
	.scl	3;
	.type	32;
	.endef
	.section	.text,"xr",one_only,_ZN5alloc3vec16Vec$LT$T$C$A$GT$17from_raw_parts_in17h32f4ad4f8d3df388E
	.p2align	4, 0x90
_ZN5alloc3vec16Vec$LT$T$C$A$GT$17from_raw_parts_in17h32f4ad4f8d3df388E:
.seh_proc _ZN5alloc3vec16Vec$LT$T$C$A$GT$17from_raw_parts_in17h32f4ad4f8d3df388E
	subq	$88, %rsp
	.seh_stackalloc 88
	.seh_endprologue
	movq	%r9, 40(%rsp)
	movq	%r8, 32(%rsp)
	movq	%rdx, %rax
	movq	40(%rsp), %rdx
	movq	%rax, 48(%rsp)
	movq	%rcx, %rax
	movq	48(%rsp), %rcx
	movq	%rax, 56(%rsp)
	movq	%rax, 64(%rsp)
	callq	_ZN5alloc7raw_vec19RawVec$LT$T$C$A$GT$17from_raw_parts_in17h5aaace6fded0587fE
	movq	%rax, 72(%rsp)
	movq	%rdx, 80(%rsp)
	movq	64(%rsp), %rax
	movq	56(%rsp), %rcx
	movq	32(%rsp), %rdx
	movq	80(%rsp), %r8
	movq	72(%rsp), %r9
	movq	%r9, (%rcx)
	movq	%r8, 8(%rcx)
	movq	%rdx, 16(%rcx)
	addq	$88, %rsp
	retq
	.seh_endproc

	.def	_ZN5alloc3vec16Vec$LT$T$C$A$GT$3len17h73c41fe1aefb954eE;
	.scl	3;
	.type	32;
	.endef
	.section	.text,"xr",one_only,_ZN5alloc3vec16Vec$LT$T$C$A$GT$3len17h73c41fe1aefb954eE
	.p2align	4, 0x90
_ZN5alloc3vec16Vec$LT$T$C$A$GT$3len17h73c41fe1aefb954eE:
	movq	16(%rcx), %rax
	retq

	.def	_ZN5alloc3vec16Vec$LT$T$C$A$GT$4push17h058a22ad0c1a7328E;
	.scl	3;
	.type	32;
	.endef
	.section	.text,"xr",one_only,_ZN5alloc3vec16Vec$LT$T$C$A$GT$4push17h058a22ad0c1a7328E
	.p2align	4, 0x90
_ZN5alloc3vec16Vec$LT$T$C$A$GT$4push17h058a22ad0c1a7328E:
.Lfunc_begin10:
.seh_proc _ZN5alloc3vec16Vec$LT$T$C$A$GT$4push17h058a22ad0c1a7328E
	.seh_handler __CxxFrameHandler3, @unwind, @except
	pushq	%rbp
	.seh_pushreg %rbp
	subq	$96, %rsp
	.seh_stackalloc 96
	leaq	96(%rsp), %rbp
	.seh_setframe %rbp, 96
	.seh_endprologue
	movq	$-2, -8(%rbp)
	movq	%rdx, -48(%rbp)
	movq	%rcx, -40(%rbp)
	movb	$1, -25(%rbp)
	movq	16(%rcx), %rax
	movq	8(%rcx), %rcx
	movq	%rcx, -16(%rbp)
	cmpq	-16(%rbp), %rax
	je	.LBB139_3
	jmp	.LBB139_2
.LBB139_2:
.Ltmp34:
	movq	-40(%rbp), %rcx
	callq	_ZN5alloc3vec16Vec$LT$T$C$A$GT$10as_mut_ptr17h2406b1cd4da1fd53E
.Ltmp35:
	movq	%rax, -56(%rbp)
	jmp	.LBB139_5
.LBB139_3:
	movq	-40(%rbp), %rcx
	movq	16(%rcx), %rdx
.Ltmp32:
	callq	_ZN5alloc7raw_vec19RawVec$LT$T$C$A$GT$16reserve_for_push17h105089010f4c023dE
.Ltmp33:
	jmp	.LBB139_4
.LBB139_4:
	jmp	.LBB139_2
.LBB139_5:
	movq	-48(%rbp), %rdx
	movq	-56(%rbp), %rax
	movq	-40(%rbp), %rcx
	movq	16(%rcx), %rcx
	leaq	(%rax,%rcx,8), %rax
	movq	%rax, -24(%rbp)
	movq	-24(%rbp), %rcx
	movb	$0, -25(%rbp)
.Ltmp36:
	callq	_ZN4core3ptr5write17hdf01ae00e2d1add0E
.Ltmp37:
	jmp	.LBB139_6
.LBB139_6:
	movq	-40(%rbp), %rax
	movq	16(%rax), %rcx
	addq	$1, %rcx
	movq	%rcx, 16(%rax)
	addq	$96, %rsp
	popq	%rbp
	retq
	.seh_handlerdata
	.long	($cppxdata$_ZN5alloc3vec16Vec$LT$T$C$A$GT$4push17h058a22ad0c1a7328E)@IMGREL
	.section	.text,"xr",one_only,_ZN5alloc3vec16Vec$LT$T$C$A$GT$4push17h058a22ad0c1a7328E
	.seh_endproc
	.def	"?dtor$1@?0?_ZN5alloc3vec16Vec$LT$T$C$A$GT$4push17h058a22ad0c1a7328E@4HA";
	.scl	3;
	.type	32;
	.endef
	.p2align	4, 0x90
"?dtor$1@?0?_ZN5alloc3vec16Vec$LT$T$C$A$GT$4push17h058a22ad0c1a7328E@4HA":
.seh_proc "?dtor$1@?0?_ZN5alloc3vec16Vec$LT$T$C$A$GT$4push17h058a22ad0c1a7328E@4HA"
.LBB139_1:
	movq	%rdx, 16(%rsp)
	pushq	%rbp
	.seh_pushreg %rbp
	subq	$32, %rsp
	.seh_stackalloc 32
	leaq	96(%rdx), %rbp
	.seh_endprologue
	testb	$1, -25(%rbp)
	jne	.LBB139_8
	jmp	.LBB139_7
.LBB139_7:
	addq	$32, %rsp
	popq	%rbp
	retq
.LBB139_8:
	jmp	.LBB139_7
.Lfunc_end10:
	.seh_handlerdata
	.section	.text,"xr",one_only,_ZN5alloc3vec16Vec$LT$T$C$A$GT$4push17h058a22ad0c1a7328E
	.seh_endproc
	.section	.xdata,"dr",associative,_ZN5alloc3vec16Vec$LT$T$C$A$GT$4push17h058a22ad0c1a7328E
	.p2align	2
$cppxdata$_ZN5alloc3vec16Vec$LT$T$C$A$GT$4push17h058a22ad0c1a7328E:
	.long	429065506
	.long	1
	.long	($stateUnwindMap$_ZN5alloc3vec16Vec$LT$T$C$A$GT$4push17h058a22ad0c1a7328E)@IMGREL
	.long	0
	.long	0
	.long	3
	.long	($ip2state$_ZN5alloc3vec16Vec$LT$T$C$A$GT$4push17h058a22ad0c1a7328E)@IMGREL
	.long	88
	.long	0
	.long	1
$stateUnwindMap$_ZN5alloc3vec16Vec$LT$T$C$A$GT$4push17h058a22ad0c1a7328E:
	.long	-1
	.long	"?dtor$1@?0?_ZN5alloc3vec16Vec$LT$T$C$A$GT$4push17h058a22ad0c1a7328E@4HA"@IMGREL
$ip2state$_ZN5alloc3vec16Vec$LT$T$C$A$GT$4push17h058a22ad0c1a7328E:
	.long	.Lfunc_begin10@IMGREL
	.long	-1
	.long	.Ltmp34@IMGREL+1
	.long	0
	.long	.Ltmp37@IMGREL+1
	.long	-1
	.section	.text,"xr",one_only,_ZN5alloc3vec16Vec$LT$T$C$A$GT$4push17h058a22ad0c1a7328E

	.def	_ZN5alloc5alloc12alloc_zeroed17h86dae5f10dd24b6bE;
	.scl	3;
	.type	32;
	.endef
	.section	.text,"xr",one_only,_ZN5alloc5alloc12alloc_zeroed17h86dae5f10dd24b6bE
	.p2align	4, 0x90
_ZN5alloc5alloc12alloc_zeroed17h86dae5f10dd24b6bE:
.seh_proc _ZN5alloc5alloc12alloc_zeroed17h86dae5f10dd24b6bE
	subq	$72, %rsp
	.seh_stackalloc 72
	.seh_endprologue
	movq	%rcx, 56(%rsp)
	movq	%rdx, 64(%rsp)
	leaq	56(%rsp), %rcx
	callq	_ZN4core5alloc6layout6Layout4size17h1b5ace7fc5cb046eE
	movq	%rax, 48(%rsp)
	leaq	56(%rsp), %rcx
	callq	_ZN4core5alloc6layout6Layout5align17h988ff4f8fb349d06E
	movq	%rax, 40(%rsp)
	movq	40(%rsp), %rdx
	movq	48(%rsp), %rcx
	callq	__rust_alloc_zeroed
	movq	%rax, 32(%rsp)
	movq	32(%rsp), %rax
	addq	$72, %rsp
	retq
	.seh_endproc

	.def	_ZN5alloc5alloc15exchange_malloc17h891a551d6e95bff0E;
	.scl	3;
	.type	32;
	.endef
	.section	.text,"xr",one_only,_ZN5alloc5alloc15exchange_malloc17h891a551d6e95bff0E
	.p2align	4, 0x90
_ZN5alloc5alloc15exchange_malloc17h891a551d6e95bff0E:
.seh_proc _ZN5alloc5alloc15exchange_malloc17h891a551d6e95bff0E
	subq	$72, %rsp
	.seh_stackalloc 72
	.seh_endprologue
	callq	_ZN4core5alloc6layout6Layout25from_size_align_unchecked17h384c034f52b7ac82E
	movq	%rax, 40(%rsp)
	movq	%rdx, 48(%rsp)
	movq	48(%rsp), %r8
	movq	40(%rsp), %rdx
	leaq	__unnamed_7(%rip), %rcx
	callq	_ZN63_$LT$alloc..alloc..Global$u20$as$u20$core..alloc..Allocator$GT$8allocate17ha141e8a24ecdb301E
	movq	%rdx, 64(%rsp)
	movq	%rax, 56(%rsp)
	movq	56(%rsp), %rax
	testq	%rax, %rax
	sete	%al
	movzbl	%al, %eax
	jne	.LBB141_4
	jmp	.LBB141_7
.LBB141_7:
	jmp	.LBB141_5
	ud2
.LBB141_4:
	movq	56(%rsp), %rcx
	movq	64(%rsp), %rdx
	callq	_ZN4core3ptr8non_null26NonNull$LT$$u5b$T$u5d$$GT$10as_mut_ptr17h0fc293fecc4b88b0E
	movq	%rax, 32(%rsp)
	jmp	.LBB141_6
.LBB141_5:
	movq	48(%rsp), %rdx
	movq	40(%rsp), %rcx
	callq	_ZN5alloc5alloc18handle_alloc_error17h698561ce413a9830E
	ud2
.LBB141_6:
	movq	32(%rsp), %rax
	addq	$72, %rsp
	retq
	.seh_endproc

	.def	_ZN5alloc5alloc5alloc17h15fe4dd87399f604E;
	.scl	3;
	.type	32;
	.endef
	.section	.text,"xr",one_only,_ZN5alloc5alloc5alloc17h15fe4dd87399f604E
	.p2align	4, 0x90
_ZN5alloc5alloc5alloc17h15fe4dd87399f604E:
.seh_proc _ZN5alloc5alloc5alloc17h15fe4dd87399f604E
	subq	$72, %rsp
	.seh_stackalloc 72
	.seh_endprologue
	movq	%rcx, 56(%rsp)
	movq	%rdx, 64(%rsp)
	leaq	56(%rsp), %rcx
	callq	_ZN4core5alloc6layout6Layout4size17h1b5ace7fc5cb046eE
	movq	%rax, 48(%rsp)
	leaq	56(%rsp), %rcx
	callq	_ZN4core5alloc6layout6Layout5align17h988ff4f8fb349d06E
	movq	%rax, 40(%rsp)
	movq	40(%rsp), %rdx
	movq	48(%rsp), %rcx
	callq	__rust_alloc
	movq	%rax, 32(%rsp)
	movq	32(%rsp), %rax
	addq	$72, %rsp
	retq
	.seh_endproc

	.def	_ZN5alloc5alloc6Global10alloc_impl17h0e5a59f3b097d2e8E;
	.scl	3;
	.type	32;
	.endef
	.section	.text,"xr",one_only,_ZN5alloc5alloc6Global10alloc_impl17h0e5a59f3b097d2e8E
	.p2align	4, 0x90
_ZN5alloc5alloc6Global10alloc_impl17h0e5a59f3b097d2e8E:
.seh_proc _ZN5alloc5alloc6Global10alloc_impl17h0e5a59f3b097d2e8E
	subq	$152, %rsp
	.seh_stackalloc 152
	.seh_endprologue
	movb	%r9b, 95(%rsp)
	movq	%rdx, 104(%rsp)
	movq	%r8, 112(%rsp)
	leaq	104(%rsp), %rcx
	callq	_ZN4core5alloc6layout6Layout4size17h1b5ace7fc5cb046eE
	movq	%rax, 96(%rsp)
	movq	96(%rsp), %rax
	cmpq	$0, %rax
	jne	.LBB143_3
	leaq	104(%rsp), %rcx
	callq	_ZN4core5alloc6layout6Layout8dangling17h080f6884de83404cE
	movq	%rax, 80(%rsp)
	jmp	.LBB143_19
.LBB143_3:
	movb	95(%rsp), %al
	testb	$1, %al
	jne	.LBB143_5
	jmp	.LBB143_4
.LBB143_4:
	movq	104(%rsp), %rcx
	movq	112(%rsp), %rdx
	callq	_ZN5alloc5alloc5alloc17h15fe4dd87399f604E
	movq	%rax, 136(%rsp)
	jmp	.LBB143_8
.LBB143_5:
	movq	104(%rsp), %rcx
	movq	112(%rsp), %rdx
	callq	_ZN5alloc5alloc12alloc_zeroed17h86dae5f10dd24b6bE
	movq	%rax, 136(%rsp)
	jmp	.LBB143_7
.LBB143_7:
	movq	136(%rsp), %rcx
	callq	_ZN4core3ptr8non_null16NonNull$LT$T$GT$3new17h8cea5919ebacef4aE
	movq	%rax, 72(%rsp)
	jmp	.LBB143_9
.LBB143_8:
	jmp	.LBB143_7
.LBB143_9:
	movq	72(%rsp), %rcx
	callq	_ZN4core6option15Option$LT$T$GT$5ok_or17ha63d195b000cca8dE
	movq	%rax, 64(%rsp)
	movq	64(%rsp), %rcx
	callq	_ZN79_$LT$core..result..Result$LT$T$C$E$GT$$u20$as$u20$core..ops..try_trait..Try$GT$6branch17h87196cf8d8392696E
	movq	%rax, 144(%rsp)
	movq	144(%rsp), %rax
	testq	%rax, %rax
	sete	%al
	movzbl	%al, %eax
	jne	.LBB143_13
	jmp	.LBB143_21
.LBB143_21:
	jmp	.LBB143_14
	ud2
.LBB143_13:
	movq	96(%rsp), %rdx
	movq	144(%rsp), %rcx
	callq	_ZN4core3ptr8non_null26NonNull$LT$$u5b$T$u5d$$GT$20slice_from_raw_parts17h4d65c9583dc3c64bE
	movq	%rax, 48(%rsp)
	movq	%rdx, 56(%rsp)
	jmp	.LBB143_17
.LBB143_14:
	leaq	__unnamed_11(%rip), %rcx
	callq	_ZN153_$LT$core..result..Result$LT$T$C$F$GT$$u20$as$u20$core..ops..try_trait..FromResidual$LT$core..result..Result$LT$core..convert..Infallible$C$E$GT$$GT$$GT$13from_residual17h485825a9cb1b251fE
	movq	%rdx, 128(%rsp)
	movq	%rax, 120(%rsp)
	jmp	.LBB143_16
.LBB143_16:
	movq	120(%rsp), %rax
	movq	128(%rsp), %rdx
	addq	$152, %rsp
	retq
.LBB143_17:
	movq	56(%rsp), %rax
	movq	48(%rsp), %rcx
	movq	%rcx, 120(%rsp)
	movq	%rax, 128(%rsp)
.LBB143_18:
	jmp	.LBB143_16
.LBB143_19:
	movq	80(%rsp), %rcx
	xorl	%eax, %eax
	movl	%eax, %edx
	callq	_ZN4core3ptr8non_null26NonNull$LT$$u5b$T$u5d$$GT$20slice_from_raw_parts17h4d65c9583dc3c64bE
	movq	%rax, 32(%rsp)
	movq	%rdx, 40(%rsp)
	movq	40(%rsp), %rax
	movq	32(%rsp), %rcx
	movq	%rcx, 120(%rsp)
	movq	%rax, 128(%rsp)
	jmp	.LBB143_18
	.seh_endproc

	.def	_ZN5alloc5alloc6Global9grow_impl17hfe0ba52c5714007aE;
	.scl	3;
	.type	32;
	.endef
	.section	.text,"xr",one_only,_ZN5alloc5alloc6Global9grow_impl17hfe0ba52c5714007aE
	.p2align	4, 0x90
_ZN5alloc5alloc6Global9grow_impl17hfe0ba52c5714007aE:
.seh_proc _ZN5alloc5alloc6Global9grow_impl17hfe0ba52c5714007aE
	subq	$280, %rsp
	.seh_stackalloc 280
	.seh_endprologue
	movq	%rdx, 168(%rsp)
	movq	%rcx, 176(%rsp)
	movb	336(%rsp), %al
	movb	%al, 191(%rsp)
	movq	328(%rsp), %rax
	movq	320(%rsp), %rcx
	movq	%r8, 200(%rsp)
	movq	%r9, 208(%rsp)
	movq	%rcx, 216(%rsp)
	movq	%rax, 224(%rsp)
	leaq	200(%rsp), %rcx
	callq	_ZN4core5alloc6layout6Layout4size17h1b5ace7fc5cb046eE
	movq	%rax, 192(%rsp)
	movq	192(%rsp), %rax
	cmpq	$0, %rax
	jne	.LBB144_3
	movq	176(%rsp), %rcx
	movb	191(%rsp), %r9b
	movq	216(%rsp), %rdx
	movq	224(%rsp), %r8
	andb	$1, %r9b
	callq	_ZN5alloc5alloc6Global10alloc_impl17h0e5a59f3b097d2e8E
	movq	%rdx, 240(%rsp)
	movq	%rax, 232(%rsp)
	jmp	.LBB144_38
.LBB144_3:
	leaq	200(%rsp), %rcx
	callq	_ZN4core5alloc6layout6Layout5align17h988ff4f8fb349d06E
	movq	%rax, 160(%rsp)
	leaq	216(%rsp), %rcx
	callq	_ZN4core5alloc6layout6Layout5align17h988ff4f8fb349d06E
	movq	%rax, 152(%rsp)
	movq	160(%rsp), %rax
	movq	152(%rsp), %rcx
	cmpq	%rcx, %rax
	je	.LBB144_7
	movq	176(%rsp), %rcx
	movb	191(%rsp), %r9b
	movq	216(%rsp), %rdx
	movq	224(%rsp), %r8
	andb	$1, %r9b
	callq	_ZN5alloc5alloc6Global10alloc_impl17h0e5a59f3b097d2e8E
	movq	%rdx, 136(%rsp)
	movq	%rax, 144(%rsp)
	jmp	.LBB144_27
.LBB144_7:
	leaq	216(%rsp), %rcx
	callq	_ZN4core5alloc6layout6Layout4size17h1b5ace7fc5cb046eE
	movq	%rax, 128(%rsp)
	leaq	200(%rsp), %rcx
	callq	_ZN4core5alloc6layout6Layout4size17h1b5ace7fc5cb046eE
	movq	168(%rsp), %rcx
	callq	_ZN4core3ptr8non_null16NonNull$LT$T$GT$6as_ptr17h3dca4ffcd4a38b8cE
	movq	%rax, 120(%rsp)
	movq	128(%rsp), %r9
	movq	120(%rsp), %rcx
	movq	200(%rsp), %rdx
	movq	208(%rsp), %r8
	callq	_ZN5alloc5alloc7realloc17h105d1bee5279d929E
	movq	%rax, 112(%rsp)
	movq	112(%rsp), %rcx
	callq	_ZN4core3ptr8non_null16NonNull$LT$T$GT$3new17h8cea5919ebacef4aE
	movq	%rax, 104(%rsp)
	movq	104(%rsp), %rcx
	callq	_ZN4core6option15Option$LT$T$GT$5ok_or17ha63d195b000cca8dE
	movq	%rax, 96(%rsp)
	movq	96(%rsp), %rcx
	callq	_ZN79_$LT$core..result..Result$LT$T$C$E$GT$$u20$as$u20$core..ops..try_trait..Try$GT$6branch17h87196cf8d8392696E
	movq	%rax, 248(%rsp)
	movq	248(%rsp), %rax
	testq	%rax, %rax
	sete	%al
	movzbl	%al, %eax
	jne	.LBB144_17
	jmp	.LBB144_40
.LBB144_40:
	jmp	.LBB144_18
	ud2
.LBB144_17:
	movb	191(%rsp), %al
	movq	248(%rsp), %rcx
	movq	%rcx, 88(%rsp)
	testb	$1, %al
	jne	.LBB144_22
	jmp	.LBB144_21
.LBB144_18:
	leaq	__unnamed_12(%rip), %rcx
	callq	_ZN153_$LT$core..result..Result$LT$T$C$F$GT$$u20$as$u20$core..ops..try_trait..FromResidual$LT$core..result..Result$LT$core..convert..Infallible$C$E$GT$$GT$$GT$13from_residual17h485825a9cb1b251fE
	movq	%rdx, 240(%rsp)
	movq	%rax, 232(%rsp)
	jmp	.LBB144_20
.LBB144_20:
	jmp	.LBB144_33
.LBB144_21:
	movq	128(%rsp), %rdx
	movq	88(%rsp), %rcx
	callq	_ZN4core3ptr8non_null26NonNull$LT$$u5b$T$u5d$$GT$20slice_from_raw_parts17h4d65c9583dc3c64bE
	movq	%rax, 72(%rsp)
	movq	%rdx, 80(%rsp)
	jmp	.LBB144_25
.LBB144_22:
	movq	192(%rsp), %rcx
	movq	112(%rsp), %rax
	addq	%rcx, %rax
	movq	%rax, 272(%rsp)
	movq	272(%rsp), %rax
	movq	%rax, 64(%rsp)
	movq	64(%rsp), %rcx
	movq	192(%rsp), %rax
	movq	128(%rsp), %r8
	subq	%rax, %r8
	xorl	%edx, %edx
	callq	_ZN4core10intrinsics11write_bytes17hab2446c47c814e83E
	jmp	.LBB144_21
.LBB144_25:
	movq	80(%rsp), %rax
	movq	72(%rsp), %rcx
	movq	%rcx, 232(%rsp)
	movq	%rax, 240(%rsp)
.LBB144_26:
	jmp	.LBB144_33
.LBB144_27:
	movq	136(%rsp), %rdx
	movq	144(%rsp), %rcx
	callq	_ZN79_$LT$core..result..Result$LT$T$C$E$GT$$u20$as$u20$core..ops..try_trait..Try$GT$6branch17h29738190cf67be97E
	movq	%rdx, 264(%rsp)
	movq	%rax, 256(%rsp)
	movq	256(%rsp), %rax
	testq	%rax, %rax
	sete	%al
	movzbl	%al, %eax
	jne	.LBB144_30
	jmp	.LBB144_39
.LBB144_39:
	jmp	.LBB144_31
	ud2
.LBB144_30:
	movq	168(%rsp), %rcx
	movq	256(%rsp), %rax
	movq	%rax, 40(%rsp)
	movq	264(%rsp), %rax
	movq	%rax, 48(%rsp)
	callq	_ZN4core3ptr8non_null16NonNull$LT$T$GT$6as_ptr17h3dca4ffcd4a38b8cE
	movq	%rax, 56(%rsp)
	jmp	.LBB144_34
.LBB144_31:
	leaq	__unnamed_13(%rip), %rcx
	callq	_ZN153_$LT$core..result..Result$LT$T$C$F$GT$$u20$as$u20$core..ops..try_trait..FromResidual$LT$core..result..Result$LT$core..convert..Infallible$C$E$GT$$GT$$GT$13from_residual17h485825a9cb1b251fE
	movq	%rdx, 240(%rsp)
	movq	%rax, 232(%rsp)
	jmp	.LBB144_20
.LBB144_33:
	movq	232(%rsp), %rax
	movq	240(%rsp), %rdx
	addq	$280, %rsp
	retq
.LBB144_34:
	movq	48(%rsp), %rdx
	movq	40(%rsp), %rcx
	callq	_ZN4core3ptr8non_null26NonNull$LT$$u5b$T$u5d$$GT$10as_mut_ptr17h0fc293fecc4b88b0E
	movq	%rax, 32(%rsp)
	movq	192(%rsp), %r8
	movq	32(%rsp), %rdx
	movq	56(%rsp), %rcx
	callq	_ZN4core10intrinsics19copy_nonoverlapping17h9d62a5def6469a49E
	movq	168(%rsp), %rdx
	movq	176(%rsp), %rcx
	movq	200(%rsp), %r8
	movq	208(%rsp), %r9
	callq	_ZN63_$LT$alloc..alloc..Global$u20$as$u20$core..alloc..Allocator$GT$10deallocate17h0e0be878c9a007a6E
	movq	48(%rsp), %rax
	movq	40(%rsp), %rcx
	movq	%rcx, 232(%rsp)
	movq	%rax, 240(%rsp)
	jmp	.LBB144_26
.LBB144_38:
	jmp	.LBB144_26
	.seh_endproc

	.def	_ZN5alloc5alloc7dealloc17h23e80c4f162d505aE;
	.scl	3;
	.type	32;
	.endef
	.section	.text,"xr",one_only,_ZN5alloc5alloc7dealloc17h23e80c4f162d505aE
	.p2align	4, 0x90
_ZN5alloc5alloc7dealloc17h23e80c4f162d505aE:
.seh_proc _ZN5alloc5alloc7dealloc17h23e80c4f162d505aE
	subq	$72, %rsp
	.seh_stackalloc 72
	.seh_endprologue
	movq	%rcx, 40(%rsp)
	movq	%rdx, 56(%rsp)
	movq	%r8, 64(%rsp)
	leaq	56(%rsp), %rcx
	callq	_ZN4core5alloc6layout6Layout4size17h1b5ace7fc5cb046eE
	movq	%rax, 48(%rsp)
	leaq	56(%rsp), %rcx
	callq	_ZN4core5alloc6layout6Layout5align17h988ff4f8fb349d06E
	movq	%rax, 32(%rsp)
	movq	32(%rsp), %r8
	movq	48(%rsp), %rdx
	movq	40(%rsp), %rcx
	callq	__rust_dealloc
	nop
	addq	$72, %rsp
	retq
	.seh_endproc

	.def	_ZN5alloc5alloc7realloc17h105d1bee5279d929E;
	.scl	3;
	.type	32;
	.endef
	.section	.text,"xr",one_only,_ZN5alloc5alloc7realloc17h105d1bee5279d929E
	.p2align	4, 0x90
_ZN5alloc5alloc7realloc17h105d1bee5279d929E:
.seh_proc _ZN5alloc5alloc7realloc17h105d1bee5279d929E
	subq	$88, %rsp
	.seh_stackalloc 88
	.seh_endprologue
	movq	%r9, 48(%rsp)
	movq	%rcx, 56(%rsp)
	movq	%rdx, 72(%rsp)
	movq	%r8, 80(%rsp)
	leaq	72(%rsp), %rcx
	callq	_ZN4core5alloc6layout6Layout4size17h1b5ace7fc5cb046eE
	movq	%rax, 64(%rsp)
	leaq	72(%rsp), %rcx
	callq	_ZN4core5alloc6layout6Layout5align17h988ff4f8fb349d06E
	movq	%rax, 40(%rsp)
	movq	48(%rsp), %r9
	movq	40(%rsp), %r8
	movq	64(%rsp), %rdx
	movq	56(%rsp), %rcx
	callq	__rust_realloc
	movq	%rax, 32(%rsp)
	movq	32(%rsp), %rax
	addq	$88, %rsp
	retq
	.seh_endproc

	.def	_ZN5alloc5alloc8box_free17h45d852b8dca07568E;
	.scl	3;
	.type	32;
	.endef
	.section	.text,"xr",one_only,_ZN5alloc5alloc8box_free17h45d852b8dca07568E
	.p2align	4, 0x90
_ZN5alloc5alloc8box_free17h45d852b8dca07568E:
.Lfunc_begin11:
.seh_proc _ZN5alloc5alloc8box_free17h45d852b8dca07568E
	.seh_handler __CxxFrameHandler3, @unwind, @except
	pushq	%rbp
	.seh_pushreg %rbp
	subq	$144, %rsp
	.seh_stackalloc 144
	leaq	128(%rsp), %rbp
	.seh_setframe %rbp, 128
	.seh_endprologue
	movq	$-2, 8(%rbp)
	movq	%rcx, -32(%rbp)
	movq	%rdx, -24(%rbp)
.Ltmp38:
	leaq	-32(%rbp), %rcx
	callq	_ZN4core3ptr6unique15Unique$LT$T$GT$6as_ref17hdd021a28f7c955d8E
.Ltmp39:
	movq	%rdx, -40(%rbp)
	jmp	.LBB147_2
.LBB147_2:
	movq	-40(%rbp), %rax
	shlq	$3, %rax
	movq	%rax, -8(%rbp)
	movq	-8(%rbp), %rax
	movq	%rax, -48(%rbp)
.Ltmp40:
	leaq	-32(%rbp), %rcx
	callq	_ZN4core3ptr6unique15Unique$LT$T$GT$6as_ref17hdd021a28f7c955d8E
.Ltmp41:
	jmp	.LBB147_3
.LBB147_3:
	movq	-48(%rbp), %rcx
	movq	$8, (%rbp)
	movq	(%rbp), %rdx
.Ltmp42:
	callq	_ZN4core5alloc6layout6Layout25from_size_align_unchecked17h384c034f52b7ac82E
.Ltmp43:
	movq	%rdx, -64(%rbp)
	movq	%rax, -56(%rbp)
	jmp	.LBB147_4
.LBB147_4:
	movq	-64(%rbp), %rax
	movq	-56(%rbp), %rcx
	movq	%rcx, -88(%rbp)
	movq	%rax, -80(%rbp)
	movq	-32(%rbp), %rcx
	movq	-24(%rbp), %rdx
.Ltmp44:
	callq	_ZN4core3ptr6unique15Unique$LT$T$GT$4cast17h22bd0c4dd34ce567E
.Ltmp45:
	movq	%rax, -72(%rbp)
	jmp	.LBB147_5
.LBB147_5:
.Ltmp46:
	movq	-72(%rbp), %rcx
	callq	_ZN119_$LT$core..ptr..non_null..NonNull$LT$T$GT$$u20$as$u20$core..convert..From$LT$core..ptr..unique..Unique$LT$T$GT$$GT$$GT$4from17h8d41f71b7abe4af4E
.Ltmp47:
	movq	%rax, -96(%rbp)
	jmp	.LBB147_6
.LBB147_6:
.Ltmp48:
	movq	-80(%rbp), %r9
	movq	-88(%rbp), %r8
	movq	-96(%rbp), %rdx
	leaq	-16(%rbp), %rcx
	callq	_ZN63_$LT$alloc..alloc..Global$u20$as$u20$core..alloc..Allocator$GT$10deallocate17h0e0be878c9a007a6E
.Ltmp49:
	jmp	.LBB147_7
.LBB147_7:
	addq	$144, %rsp
	popq	%rbp
	retq
	.seh_handlerdata
	.long	($cppxdata$_ZN5alloc5alloc8box_free17h45d852b8dca07568E)@IMGREL
	.section	.text,"xr",one_only,_ZN5alloc5alloc8box_free17h45d852b8dca07568E
	.seh_endproc
	.def	"?dtor$1@?0?_ZN5alloc5alloc8box_free17h45d852b8dca07568E@4HA";
	.scl	3;
	.type	32;
	.endef
	.p2align	4, 0x90
"?dtor$1@?0?_ZN5alloc5alloc8box_free17h45d852b8dca07568E@4HA":
.seh_proc "?dtor$1@?0?_ZN5alloc5alloc8box_free17h45d852b8dca07568E@4HA"
.LBB147_1:
	movq	%rdx, 16(%rsp)
	pushq	%rbp
	.seh_pushreg %rbp
	subq	$32, %rsp
	.seh_stackalloc 32
	leaq	128(%rdx), %rbp
	.seh_endprologue
	addq	$32, %rsp
	popq	%rbp
	retq
.Lfunc_end11:
	.seh_handlerdata
	.section	.text,"xr",one_only,_ZN5alloc5alloc8box_free17h45d852b8dca07568E
	.seh_endproc
	.section	.xdata,"dr",associative,_ZN5alloc5alloc8box_free17h45d852b8dca07568E
	.p2align	2
$cppxdata$_ZN5alloc5alloc8box_free17h45d852b8dca07568E:
	.long	429065506
	.long	1
	.long	($stateUnwindMap$_ZN5alloc5alloc8box_free17h45d852b8dca07568E)@IMGREL
	.long	0
	.long	0
	.long	3
	.long	($ip2state$_ZN5alloc5alloc8box_free17h45d852b8dca07568E)@IMGREL
	.long	136
	.long	0
	.long	1
$stateUnwindMap$_ZN5alloc5alloc8box_free17h45d852b8dca07568E:
	.long	-1
	.long	"?dtor$1@?0?_ZN5alloc5alloc8box_free17h45d852b8dca07568E@4HA"@IMGREL
$ip2state$_ZN5alloc5alloc8box_free17h45d852b8dca07568E:
	.long	.Lfunc_begin11@IMGREL
	.long	-1
	.long	.Ltmp38@IMGREL+1
	.long	0
	.long	.Ltmp49@IMGREL+1
	.long	-1
	.section	.text,"xr",one_only,_ZN5alloc5alloc8box_free17h45d852b8dca07568E

	.def	_ZN5alloc5boxed16Box$LT$T$C$A$GT$11into_unique17haa8bc5398c249967E;
	.scl	3;
	.type	32;
	.endef
	.section	.text,"xr",one_only,_ZN5alloc5boxed16Box$LT$T$C$A$GT$11into_unique17haa8bc5398c249967E
	.p2align	4, 0x90
_ZN5alloc5boxed16Box$LT$T$C$A$GT$11into_unique17haa8bc5398c249967E:
.Lfunc_begin12:
.seh_proc _ZN5alloc5boxed16Box$LT$T$C$A$GT$11into_unique17haa8bc5398c249967E
	.seh_handler __CxxFrameHandler3, @unwind, @except
	pushq	%rbp
	.seh_pushreg %rbp
	subq	$112, %rsp
	.seh_stackalloc 112
	leaq	112(%rsp), %rbp
	.seh_setframe %rbp, 112
	.seh_endprologue
	movq	$-2, -8(%rbp)
	movq	%rcx, -48(%rbp)
	movq	%rdx, -40(%rbp)
	movb	$1, -9(%rbp)
.Ltmp50:
	leaq	-48(%rbp), %rcx
	callq	_ZN4core3ptr4read17h1de47499c323879eE
.Ltmp51:
	jmp	.LBB148_2
.LBB148_2:
	movb	$0, -9(%rbp)
	movq	-48(%rbp), %rcx
	movq	-40(%rbp), %rdx
.Ltmp52:
	callq	_ZN5alloc5boxed16Box$LT$T$C$A$GT$4leak17hd61ecb55206745e2E
.Ltmp53:
	movq	%rdx, -64(%rbp)
	movq	%rax, -56(%rbp)
	jmp	.LBB148_4
.LBB148_4:
.Ltmp54:
	movq	-64(%rbp), %rdx
	movq	-56(%rbp), %rcx
	callq	_ZN95_$LT$core..ptr..unique..Unique$LT$T$GT$$u20$as$u20$core..convert..From$LT$$RF$mut$u20$T$GT$$GT$4from17h39e07a13f47d31caE
.Ltmp55:
	movq	%rdx, -80(%rbp)
	movq	%rax, -72(%rbp)
	jmp	.LBB148_5
.LBB148_5:
	movq	-80(%rbp), %rax
	movq	-72(%rbp), %rcx
	movq	%rcx, -32(%rbp)
	movq	%rax, -24(%rbp)
	movq	-32(%rbp), %rax
	movq	-24(%rbp), %rdx
	addq	$112, %rsp
	popq	%rbp
	retq
	.seh_handlerdata
	.long	($cppxdata$_ZN5alloc5boxed16Box$LT$T$C$A$GT$11into_unique17haa8bc5398c249967E)@IMGREL
	.section	.text,"xr",one_only,_ZN5alloc5boxed16Box$LT$T$C$A$GT$11into_unique17haa8bc5398c249967E
	.seh_endproc
	.def	"?dtor$1@?0?_ZN5alloc5boxed16Box$LT$T$C$A$GT$11into_unique17haa8bc5398c249967E@4HA";
	.scl	3;
	.type	32;
	.endef
	.p2align	4, 0x90
"?dtor$1@?0?_ZN5alloc5boxed16Box$LT$T$C$A$GT$11into_unique17haa8bc5398c249967E@4HA":
.seh_proc "?dtor$1@?0?_ZN5alloc5boxed16Box$LT$T$C$A$GT$11into_unique17haa8bc5398c249967E@4HA"
.LBB148_1:
	movq	%rdx, 16(%rsp)
	pushq	%rbp
	.seh_pushreg %rbp
	subq	$32, %rsp
	.seh_stackalloc 32
	leaq	112(%rdx), %rbp
	.seh_endprologue
	testb	$1, -9(%rbp)
	jne	.LBB148_7
	jmp	.LBB148_6
.LBB148_6:
	addq	$32, %rsp
	popq	%rbp
	retq
.LBB148_7:
	leaq	-48(%rbp), %rcx
	callq	_ZN4core3ptr59drop_in_place$LT$alloc..boxed..Box$LT$$u5b$i64$u5d$$GT$$GT$17h03c21dfb67ca94b3E
	jmp	.LBB148_6
	.seh_handlerdata
	.section	.text,"xr",one_only,_ZN5alloc5boxed16Box$LT$T$C$A$GT$11into_unique17haa8bc5398c249967E
	.seh_endproc
	.def	"?dtor$3@?0?_ZN5alloc5boxed16Box$LT$T$C$A$GT$11into_unique17haa8bc5398c249967E@4HA";
	.scl	3;
	.type	32;
	.endef
	.p2align	4, 0x90
"?dtor$3@?0?_ZN5alloc5boxed16Box$LT$T$C$A$GT$11into_unique17haa8bc5398c249967E@4HA":
.seh_proc "?dtor$3@?0?_ZN5alloc5boxed16Box$LT$T$C$A$GT$11into_unique17haa8bc5398c249967E@4HA"
.LBB148_3:
	movq	%rdx, 16(%rsp)
	pushq	%rbp
	.seh_pushreg %rbp
	subq	$32, %rsp
	.seh_stackalloc 32
	leaq	112(%rdx), %rbp
	.seh_endprologue
	addq	$32, %rsp
	popq	%rbp
	retq
.Lfunc_end12:
	.seh_handlerdata
	.section	.text,"xr",one_only,_ZN5alloc5boxed16Box$LT$T$C$A$GT$11into_unique17haa8bc5398c249967E
	.seh_endproc
	.section	.xdata,"dr",associative,_ZN5alloc5boxed16Box$LT$T$C$A$GT$11into_unique17haa8bc5398c249967E
	.p2align	2
$cppxdata$_ZN5alloc5boxed16Box$LT$T$C$A$GT$11into_unique17haa8bc5398c249967E:
	.long	429065506
	.long	2
	.long	($stateUnwindMap$_ZN5alloc5boxed16Box$LT$T$C$A$GT$11into_unique17haa8bc5398c249967E)@IMGREL
	.long	0
	.long	0
	.long	4
	.long	($ip2state$_ZN5alloc5boxed16Box$LT$T$C$A$GT$11into_unique17haa8bc5398c249967E)@IMGREL
	.long	104
	.long	0
	.long	1
$stateUnwindMap$_ZN5alloc5boxed16Box$LT$T$C$A$GT$11into_unique17haa8bc5398c249967E:
	.long	-1
	.long	"?dtor$1@?0?_ZN5alloc5boxed16Box$LT$T$C$A$GT$11into_unique17haa8bc5398c249967E@4HA"@IMGREL
	.long	0
	.long	"?dtor$3@?0?_ZN5alloc5boxed16Box$LT$T$C$A$GT$11into_unique17haa8bc5398c249967E@4HA"@IMGREL
$ip2state$_ZN5alloc5boxed16Box$LT$T$C$A$GT$11into_unique17haa8bc5398c249967E:
	.long	.Lfunc_begin12@IMGREL
	.long	-1
	.long	.Ltmp50@IMGREL+1
	.long	0
	.long	.Ltmp52@IMGREL+1
	.long	1
	.long	.Ltmp55@IMGREL+1
	.long	-1
	.section	.text,"xr",one_only,_ZN5alloc5boxed16Box$LT$T$C$A$GT$11into_unique17haa8bc5398c249967E

	.def	_ZN5alloc5boxed16Box$LT$T$C$A$GT$23into_raw_with_allocator17he0081a69e28a1794E;
	.scl	3;
	.type	32;
	.endef
	.section	.text,"xr",one_only,_ZN5alloc5boxed16Box$LT$T$C$A$GT$23into_raw_with_allocator17he0081a69e28a1794E
	.p2align	4, 0x90
_ZN5alloc5boxed16Box$LT$T$C$A$GT$23into_raw_with_allocator17he0081a69e28a1794E:
.Lfunc_begin13:
.seh_proc _ZN5alloc5boxed16Box$LT$T$C$A$GT$23into_raw_with_allocator17he0081a69e28a1794E
	.seh_handler __CxxFrameHandler3, @unwind, @except
	pushq	%rbp
	.seh_pushreg %rbp
	subq	$80, %rsp
	.seh_stackalloc 80
	leaq	80(%rsp), %rbp
	.seh_setframe %rbp, 80
	.seh_endprologue
	movq	$-2, -8(%rbp)
	callq	_ZN5alloc5boxed16Box$LT$T$C$A$GT$11into_unique17haa8bc5398c249967E
	movq	%rax, %rcx
.Ltmp56:
	callq	_ZN4core3ptr6unique15Unique$LT$T$GT$6as_ptr17h0ef09c0aeb97931cE
.Ltmp57:
	movq	%rdx, -40(%rbp)
	movq	%rax, -32(%rbp)
	jmp	.LBB149_2
.LBB149_2:
	movq	-40(%rbp), %rax
	movq	-32(%rbp), %rcx
	movq	%rcx, -24(%rbp)
	movq	%rax, -16(%rbp)
	movq	-24(%rbp), %rax
	movq	-16(%rbp), %rdx
	addq	$80, %rsp
	popq	%rbp
	retq
	.seh_handlerdata
	.long	($cppxdata$_ZN5alloc5boxed16Box$LT$T$C$A$GT$23into_raw_with_allocator17he0081a69e28a1794E)@IMGREL
	.section	.text,"xr",one_only,_ZN5alloc5boxed16Box$LT$T$C$A$GT$23into_raw_with_allocator17he0081a69e28a1794E
	.seh_endproc
	.def	"?dtor$1@?0?_ZN5alloc5boxed16Box$LT$T$C$A$GT$23into_raw_with_allocator17he0081a69e28a1794E@4HA";
	.scl	3;
	.type	32;
	.endef
	.p2align	4, 0x90
"?dtor$1@?0?_ZN5alloc5boxed16Box$LT$T$C$A$GT$23into_raw_with_allocator17he0081a69e28a1794E@4HA":
.seh_proc "?dtor$1@?0?_ZN5alloc5boxed16Box$LT$T$C$A$GT$23into_raw_with_allocator17he0081a69e28a1794E@4HA"
.LBB149_1:
	movq	%rdx, 16(%rsp)
	pushq	%rbp
	.seh_pushreg %rbp
	subq	$32, %rsp
	.seh_stackalloc 32
	leaq	80(%rdx), %rbp
	.seh_endprologue
	addq	$32, %rsp
	popq	%rbp
	retq
.Lfunc_end13:
	.seh_handlerdata
	.section	.text,"xr",one_only,_ZN5alloc5boxed16Box$LT$T$C$A$GT$23into_raw_with_allocator17he0081a69e28a1794E
	.seh_endproc
	.section	.xdata,"dr",associative,_ZN5alloc5boxed16Box$LT$T$C$A$GT$23into_raw_with_allocator17he0081a69e28a1794E
	.p2align	2
$cppxdata$_ZN5alloc5boxed16Box$LT$T$C$A$GT$23into_raw_with_allocator17he0081a69e28a1794E:
	.long	429065506
	.long	1
	.long	($stateUnwindMap$_ZN5alloc5boxed16Box$LT$T$C$A$GT$23into_raw_with_allocator17he0081a69e28a1794E)@IMGREL
	.long	0
	.long	0
	.long	3
	.long	($ip2state$_ZN5alloc5boxed16Box$LT$T$C$A$GT$23into_raw_with_allocator17he0081a69e28a1794E)@IMGREL
	.long	72
	.long	0
	.long	1
$stateUnwindMap$_ZN5alloc5boxed16Box$LT$T$C$A$GT$23into_raw_with_allocator17he0081a69e28a1794E:
	.long	-1
	.long	"?dtor$1@?0?_ZN5alloc5boxed16Box$LT$T$C$A$GT$23into_raw_with_allocator17he0081a69e28a1794E@4HA"@IMGREL
$ip2state$_ZN5alloc5boxed16Box$LT$T$C$A$GT$23into_raw_with_allocator17he0081a69e28a1794E:
	.long	.Lfunc_begin13@IMGREL
	.long	-1
	.long	.Ltmp56@IMGREL+1
	.long	0
	.long	.Ltmp57@IMGREL+1
	.long	-1
	.section	.text,"xr",one_only,_ZN5alloc5boxed16Box$LT$T$C$A$GT$23into_raw_with_allocator17he0081a69e28a1794E

	.def	_ZN5alloc5boxed16Box$LT$T$C$A$GT$4leak17hd61ecb55206745e2E;
	.scl	3;
	.type	32;
	.endef
	.section	.text,"xr",one_only,_ZN5alloc5boxed16Box$LT$T$C$A$GT$4leak17hd61ecb55206745e2E
	.p2align	4, 0x90
_ZN5alloc5boxed16Box$LT$T$C$A$GT$4leak17hd61ecb55206745e2E:
.seh_proc _ZN5alloc5boxed16Box$LT$T$C$A$GT$4leak17hd61ecb55206745e2E
	subq	$88, %rsp
	.seh_stackalloc 88
	.seh_endprologue
	movq	%rcx, 72(%rsp)
	movq	%rdx, 80(%rsp)
	movq	72(%rsp), %rax
	movq	80(%rsp), %rcx
	movq	%rcx, 64(%rsp)
	movq	%rax, 56(%rsp)
	leaq	56(%rsp), %rax
	movq	%rax, 48(%rsp)
	movq	48(%rsp), %rax
	movq	(%rax), %rcx
	movq	8(%rax), %rdx
	callq	_ZN4core3ptr6unique15Unique$LT$T$GT$6as_ptr17h0ef09c0aeb97931cE
	movq	%rax, 32(%rsp)
	movq	%rdx, 40(%rsp)
	movq	40(%rsp), %rdx
	movq	32(%rsp), %rax
	addq	$88, %rsp
	retq
	.seh_endproc

	.def	_ZN5alloc5slice29_$LT$impl$u20$$u5b$T$u5d$$GT$8into_vec17h757f8fbdd9703865E;
	.scl	3;
	.type	32;
	.endef
	.section	.text,"xr",one_only,_ZN5alloc5slice29_$LT$impl$u20$$u5b$T$u5d$$GT$8into_vec17h757f8fbdd9703865E
	.p2align	4, 0x90
_ZN5alloc5slice29_$LT$impl$u20$$u5b$T$u5d$$GT$8into_vec17h757f8fbdd9703865E:
.seh_proc _ZN5alloc5slice29_$LT$impl$u20$$u5b$T$u5d$$GT$8into_vec17h757f8fbdd9703865E
	subq	$40, %rsp
	.seh_stackalloc 40
	.seh_endprologue
	movq	%rcx, %rax
	movq	%rax, 32(%rsp)
	callq	_ZN5alloc5slice4hack8into_vec17hc998ef436d88a564E
	movq	32(%rsp), %rax
	addq	$40, %rsp
	retq
	.seh_endproc

	.def	_ZN5alloc5slice4hack8into_vec17hc998ef436d88a564E;
	.scl	3;
	.type	32;
	.endef
	.section	.text,"xr",one_only,_ZN5alloc5slice4hack8into_vec17hc998ef436d88a564E
	.p2align	4, 0x90
_ZN5alloc5slice4hack8into_vec17hc998ef436d88a564E:
.Lfunc_begin14:
.seh_proc _ZN5alloc5slice4hack8into_vec17hc998ef436d88a564E
	.seh_handler __CxxFrameHandler3, @unwind, @except
	pushq	%rbp
	.seh_pushreg %rbp
	subq	$96, %rsp
	.seh_stackalloc 96
	leaq	96(%rsp), %rbp
	.seh_setframe %rbp, 96
	.seh_endprologue
	movq	$-2, -8(%rbp)
	movq	%rcx, -56(%rbp)
	movq	%rcx, -48(%rbp)
	movq	%rdx, -32(%rbp)
	movq	%r8, -24(%rbp)
	movb	$1, -9(%rbp)
	movq	-32(%rbp), %rcx
	movq	-24(%rbp), %rdx
.Ltmp58:
	callq	_ZN4core5slice29_$LT$impl$u20$$u5b$T$u5d$$GT$3len17h8d46209724a985a5E
.Ltmp59:
	movq	%rax, -40(%rbp)
	jmp	.LBB152_2
.LBB152_2:
	movb	$0, -9(%rbp)
	movq	-32(%rbp), %rcx
	movq	-24(%rbp), %rdx
.Ltmp60:
	callq	_ZN5alloc5boxed16Box$LT$T$C$A$GT$23into_raw_with_allocator17he0081a69e28a1794E
.Ltmp61:
	movq	%rax, -64(%rbp)
	jmp	.LBB152_3
.LBB152_3:
.Ltmp62:
	movq	-40(%rbp), %r9
	movq	-64(%rbp), %rdx
	movq	-56(%rbp), %rcx
	movq	%r9, %r8
	callq	_ZN5alloc3vec16Vec$LT$T$C$A$GT$17from_raw_parts_in17h32f4ad4f8d3df388E
.Ltmp63:
	jmp	.LBB152_4
.LBB152_4:
	movq	-48(%rbp), %rax
	addq	$96, %rsp
	popq	%rbp
	retq
	.seh_handlerdata
	.long	($cppxdata$_ZN5alloc5slice4hack8into_vec17hc998ef436d88a564E)@IMGREL
	.section	.text,"xr",one_only,_ZN5alloc5slice4hack8into_vec17hc998ef436d88a564E
	.seh_endproc
	.def	"?dtor$1@?0?_ZN5alloc5slice4hack8into_vec17hc998ef436d88a564E@4HA";
	.scl	3;
	.type	32;
	.endef
	.p2align	4, 0x90
"?dtor$1@?0?_ZN5alloc5slice4hack8into_vec17hc998ef436d88a564E@4HA":
.seh_proc "?dtor$1@?0?_ZN5alloc5slice4hack8into_vec17hc998ef436d88a564E@4HA"
.LBB152_1:
	movq	%rdx, 16(%rsp)
	pushq	%rbp
	.seh_pushreg %rbp
	subq	$32, %rsp
	.seh_stackalloc 32
	leaq	96(%rdx), %rbp
	.seh_endprologue
	testb	$1, -9(%rbp)
	jne	.LBB152_6
	jmp	.LBB152_5
.LBB152_5:
	addq	$32, %rsp
	popq	%rbp
	retq
.LBB152_6:
	leaq	-32(%rbp), %rcx
	callq	_ZN4core3ptr59drop_in_place$LT$alloc..boxed..Box$LT$$u5b$i64$u5d$$GT$$GT$17h03c21dfb67ca94b3E
	jmp	.LBB152_5
.Lfunc_end14:
	.seh_handlerdata
	.section	.text,"xr",one_only,_ZN5alloc5slice4hack8into_vec17hc998ef436d88a564E
	.seh_endproc
	.section	.xdata,"dr",associative,_ZN5alloc5slice4hack8into_vec17hc998ef436d88a564E
	.p2align	2
$cppxdata$_ZN5alloc5slice4hack8into_vec17hc998ef436d88a564E:
	.long	429065506
	.long	1
	.long	($stateUnwindMap$_ZN5alloc5slice4hack8into_vec17hc998ef436d88a564E)@IMGREL
	.long	0
	.long	0
	.long	3
	.long	($ip2state$_ZN5alloc5slice4hack8into_vec17hc998ef436d88a564E)@IMGREL
	.long	88
	.long	0
	.long	1
$stateUnwindMap$_ZN5alloc5slice4hack8into_vec17hc998ef436d88a564E:
	.long	-1
	.long	"?dtor$1@?0?_ZN5alloc5slice4hack8into_vec17hc998ef436d88a564E@4HA"@IMGREL
$ip2state$_ZN5alloc5slice4hack8into_vec17hc998ef436d88a564E:
	.long	.Lfunc_begin14@IMGREL
	.long	-1
	.long	.Ltmp58@IMGREL+1
	.long	0
	.long	.Ltmp63@IMGREL+1
	.long	-1
	.section	.text,"xr",one_only,_ZN5alloc5slice4hack8into_vec17hc998ef436d88a564E

	.def	_ZN5alloc7raw_vec11alloc_guard17h34022f6b4c6e764eE;
	.scl	3;
	.type	32;
	.endef
	.section	.text,"xr",one_only,_ZN5alloc7raw_vec11alloc_guard17h34022f6b4c6e764eE
	.p2align	4, 0x90
_ZN5alloc7raw_vec11alloc_guard17h34022f6b4c6e764eE:
.seh_proc _ZN5alloc7raw_vec11alloc_guard17h34022f6b4c6e764eE
	subq	$88, %rsp
	.seh_stackalloc 88
	.seh_endprologue
	xorl	%eax, %eax
	testb	$1, %al
	jne	.LBB153_2
	movabsq	$-9223372036854775807, %rax
	movq	%rax, 64(%rsp)
	jmp	.LBB153_4
.LBB153_2:
	movq	$0, 80(%rsp)
	movq	72(%rsp), %rcx
	movq	80(%rsp), %rdx
	callq	_ZN50_$LT$T$u20$as$u20$core..convert..Into$LT$U$GT$$GT$4into17h028a4593fa4f0aa4E
	movq	%rax, 40(%rsp)
	movq	%rdx, 48(%rsp)
	movq	48(%rsp), %rax
	movq	40(%rsp), %rcx
	movq	%rcx, 56(%rsp)
	movq	%rax, 64(%rsp)
.LBB153_4:
	movq	56(%rsp), %rax
	movq	64(%rsp), %rdx
	addq	$88, %rsp
	retq
	.seh_endproc

	.def	_ZN5alloc7raw_vec11finish_grow17hc9fbd3d7ee295726E;
	.scl	3;
	.type	32;
	.endef
	.section	.text,"xr",one_only,_ZN5alloc7raw_vec11finish_grow17hc9fbd3d7ee295726E
	.p2align	4, 0x90
_ZN5alloc7raw_vec11finish_grow17hc9fbd3d7ee295726E:
.seh_proc _ZN5alloc7raw_vec11finish_grow17hc9fbd3d7ee295726E
	subq	$232, %rsp
	.seh_stackalloc 232
	.seh_endprologue
	movq	%r9, 80(%rsp)
	movq	%rcx, 88(%rsp)
	movq	%rcx, 96(%rsp)
	movq	272(%rsp), %rax
	movq	%rax, 104(%rsp)
	leaq	152(%rsp), %rcx
	callq	_ZN4core6result19Result$LT$T$C$E$GT$7map_err17h077c8cba0a2fd6b4E
	leaq	128(%rsp), %rcx
	leaq	152(%rsp), %rdx
	callq	_ZN79_$LT$core..result..Result$LT$T$C$E$GT$$u20$as$u20$core..ops..try_trait..Try$GT$6branch17h556fec28b1921100E
	movq	128(%rsp), %rax
	testq	%rax, %rax
	je	.LBB154_4
	jmp	.LBB154_25
.LBB154_25:
	jmp	.LBB154_5
	ud2
.LBB154_4:
	movq	136(%rsp), %rcx
	movq	144(%rsp), %rax
	movq	%rcx, 112(%rsp)
	movq	%rax, 120(%rsp)
	leaq	112(%rsp), %rcx
	callq	_ZN4core5alloc6layout6Layout4size17h1b5ace7fc5cb046eE
	movq	%rax, 72(%rsp)
	jmp	.LBB154_8
.LBB154_5:
	movq	88(%rsp), %rcx
	movq	136(%rsp), %rdx
	movq	144(%rsp), %r8
	leaq	__unnamed_14(%rip), %r9
	callq	_ZN153_$LT$core..result..Result$LT$T$C$F$GT$$u20$as$u20$core..ops..try_trait..FromResidual$LT$core..result..Result$LT$core..convert..Infallible$C$E$GT$$GT$$GT$13from_residual17h1d9b5560aea99b49E
	jmp	.LBB154_7
.LBB154_7:
	jmp	.LBB154_15
.LBB154_8:
	movq	72(%rsp), %rcx
	callq	_ZN5alloc7raw_vec11alloc_guard17h34022f6b4c6e764eE
	movq	%rax, 56(%rsp)
	movq	%rdx, 64(%rsp)
	movq	64(%rsp), %rdx
	movq	56(%rsp), %rcx
	callq	_ZN79_$LT$core..result..Result$LT$T$C$E$GT$$u20$as$u20$core..ops..try_trait..Try$GT$6branch17h934c7cc8034e9ef5E
	movq	%rdx, 184(%rsp)
	movq	%rax, 176(%rsp)
	movq	184(%rsp), %rax
	movabsq	$9223372036854775807, %rcx
	addq	%rcx, %rax
	setne	%al
	movzbl	%al, %eax
	je	.LBB154_12
	jmp	.LBB154_26
.LBB154_26:
	jmp	.LBB154_13
	ud2
.LBB154_12:
	movq	80(%rsp), %rdx
	movl	$1, %eax
	xorl	%ecx, %ecx
	cmpq	$0, 16(%rdx)
	cmoveq	%rcx, %rax
	cmpq	$1, %rax
	je	.LBB154_16
	jmp	.LBB154_17
.LBB154_13:
	movq	88(%rsp), %rcx
	movq	176(%rsp), %rdx
	movq	184(%rsp), %r8
	leaq	__unnamed_15(%rip), %r9
	callq	_ZN153_$LT$core..result..Result$LT$T$C$F$GT$$u20$as$u20$core..ops..try_trait..FromResidual$LT$core..result..Result$LT$core..convert..Infallible$C$E$GT$$GT$$GT$13from_residual17h8ae351a3d5970a6dE
	jmp	.LBB154_7
.LBB154_15:
	movq	96(%rsp), %rax
	addq	$232, %rsp
	retq
.LBB154_16:
	movq	80(%rsp), %rax
	movq	(%rax), %rcx
	movq	%rcx, 48(%rsp)
	movq	8(%rax), %rcx
	movq	16(%rax), %rax
	movq	%rcx, 208(%rsp)
	movq	%rax, 216(%rsp)
	leaq	208(%rsp), %rcx
	callq	_ZN4core5alloc6layout6Layout5align17h988ff4f8fb349d06E
	jmp	.LBB154_20
.LBB154_17:
	movq	104(%rsp), %rcx
	movq	112(%rsp), %rdx
	movq	120(%rsp), %r8
	callq	_ZN63_$LT$alloc..alloc..Global$u20$as$u20$core..alloc..Allocator$GT$8allocate17ha141e8a24ecdb301E
	movq	%rdx, 200(%rsp)
	movq	%rax, 192(%rsp)
	jmp	.LBB154_19
.LBB154_19:
	movq	88(%rsp), %rcx
	movq	192(%rsp), %rdx
	movq	200(%rsp), %r8
	leaq	112(%rsp), %rax
	movq	%rax, 224(%rsp)
	movq	224(%rsp), %r9
	callq	_ZN4core6result19Result$LT$T$C$E$GT$7map_err17h0c37b28b05dbd9f6E
	jmp	.LBB154_24
.LBB154_20:
	leaq	112(%rsp), %rcx
	callq	_ZN4core5alloc6layout6Layout5align17h988ff4f8fb349d06E
	movq	48(%rsp), %rdx
	movq	104(%rsp), %rcx
	movq	208(%rsp), %r8
	movq	216(%rsp), %r9
	movq	112(%rsp), %r10
	movq	120(%rsp), %r11
	movq	%rsp, %rax
	movq	%r11, 40(%rax)
	movq	%r10, 32(%rax)
	callq	_ZN63_$LT$alloc..alloc..Global$u20$as$u20$core..alloc..Allocator$GT$4grow17h1efcf400de2a99b0E
	movq	%rdx, 200(%rsp)
	movq	%rax, 192(%rsp)
	jmp	.LBB154_19
.LBB154_24:
	jmp	.LBB154_15
	.seh_endproc

	.def	_ZN5alloc7raw_vec11finish_grow28_$u7b$$u7b$closure$u7d$$u7d$17h0d361f16966a7dc8E;
	.scl	3;
	.type	32;
	.endef
	.section	.text,"xr",one_only,_ZN5alloc7raw_vec11finish_grow28_$u7b$$u7b$closure$u7d$$u7d$17h0d361f16966a7dc8E
	.p2align	4, 0x90
_ZN5alloc7raw_vec11finish_grow28_$u7b$$u7b$closure$u7d$$u7d$17h0d361f16966a7dc8E:
.seh_proc _ZN5alloc7raw_vec11finish_grow28_$u7b$$u7b$closure$u7d$$u7d$17h0d361f16966a7dc8E
	subq	$72, %rsp
	.seh_stackalloc 72
	.seh_endprologue
	movq	%rcx, %rax
	movq	(%rax), %rcx
	movq	8(%rax), %rax
	movq	%rcx, 56(%rsp)
	movq	%rax, 64(%rsp)
	movq	56(%rsp), %rcx
	movq	64(%rsp), %rdx
	callq	_ZN50_$LT$T$u20$as$u20$core..convert..Into$LT$U$GT$$GT$4into17h028a4593fa4f0aa4E
	movq	%rax, 40(%rsp)
	movq	%rdx, 48(%rsp)
	movq	48(%rsp), %rdx
	movq	40(%rsp), %rax
	addq	$72, %rsp
	retq
	.seh_endproc

	.def	_ZN5alloc7raw_vec11finish_grow28_$u7b$$u7b$closure$u7d$$u7d$17h57cb181ec4424c6bE;
	.scl	3;
	.type	32;
	.endef
	.section	.text,"xr",one_only,_ZN5alloc7raw_vec11finish_grow28_$u7b$$u7b$closure$u7d$$u7d$17h57cb181ec4424c6bE
	.p2align	4, 0x90
_ZN5alloc7raw_vec11finish_grow28_$u7b$$u7b$closure$u7d$$u7d$17h57cb181ec4424c6bE:
.seh_proc _ZN5alloc7raw_vec11finish_grow28_$u7b$$u7b$closure$u7d$$u7d$17h57cb181ec4424c6bE
	subq	$16, %rsp
	.seh_stackalloc 16
	.seh_endprologue
	movq	$0, 8(%rsp)
	movq	(%rsp), %rax
	movq	8(%rsp), %rdx
	addq	$16, %rsp
	retq
	.seh_endproc

	.def	_ZN5alloc7raw_vec14handle_reserve17h46c0591eeef80f25E;
	.scl	3;
	.type	32;
	.endef
	.section	.text,"xr",one_only,_ZN5alloc7raw_vec14handle_reserve17h46c0591eeef80f25E
	.p2align	4, 0x90
_ZN5alloc7raw_vec14handle_reserve17h46c0591eeef80f25E:
.seh_proc _ZN5alloc7raw_vec14handle_reserve17h46c0591eeef80f25E
	subq	$56, %rsp
	.seh_stackalloc 56
	.seh_endprologue
	callq	_ZN4core6result19Result$LT$T$C$E$GT$7map_err17h3de9abdc75d273b8E
	movq	%rdx, 48(%rsp)
	movq	%rax, 40(%rsp)
	movq	48(%rsp), %rax
	movabsq	$9223372036854775807, %rcx
	addq	%rcx, %rax
	setne	%al
	movzbl	%al, %eax
	je	.LBB157_3
	jmp	.LBB157_7
.LBB157_7:
	jmp	.LBB157_4
	ud2
.LBB157_3:
	addq	$56, %rsp
	retq
.LBB157_4:
	movq	48(%rsp), %rax
	testq	%rax, %rax
	setne	%al
	movzbl	%al, %eax
	je	.LBB157_5
	jmp	.LBB157_8
.LBB157_8:
	jmp	.LBB157_6
.LBB157_5:
	callq	_ZN5alloc7raw_vec17capacity_overflow17hf223bc81083b3036E
	ud2
.LBB157_6:
	movq	40(%rsp), %rcx
	movq	48(%rsp), %rdx
	callq	_ZN5alloc5alloc18handle_alloc_error17h698561ce413a9830E
	ud2
	.seh_endproc

	.def	_ZN5alloc7raw_vec14handle_reserve28_$u7b$$u7b$closure$u7d$$u7d$17hbaf02e1f16fe61ebE;
	.scl	3;
	.type	32;
	.endef
	.section	.text,"xr",one_only,_ZN5alloc7raw_vec14handle_reserve28_$u7b$$u7b$closure$u7d$$u7d$17hbaf02e1f16fe61ebE
	.p2align	4, 0x90
_ZN5alloc7raw_vec14handle_reserve28_$u7b$$u7b$closure$u7d$$u7d$17hbaf02e1f16fe61ebE:
.seh_proc _ZN5alloc7raw_vec14handle_reserve28_$u7b$$u7b$closure$u7d$$u7d$17hbaf02e1f16fe61ebE
	subq	$72, %rsp
	.seh_stackalloc 72
	.seh_endprologue
	movq	%rcx, 56(%rsp)
	movq	%rdx, 64(%rsp)
	leaq	56(%rsp), %rcx
	callq	_ZN5alloc11collections15TryReserveError4kind17ha09d2c0b588dce03E
	movq	%rax, 40(%rsp)
	movq	%rdx, 48(%rsp)
	movq	48(%rsp), %rdx
	movq	40(%rsp), %rax
	addq	$72, %rsp
	retq
	.seh_endproc

	.def	_ZN5alloc7raw_vec19RawVec$LT$T$C$A$GT$14current_memory17hd38b7bdacc8fc93aE;
	.scl	3;
	.type	32;
	.endef
	.section	.text,"xr",one_only,_ZN5alloc7raw_vec19RawVec$LT$T$C$A$GT$14current_memory17hd38b7bdacc8fc93aE
	.p2align	4, 0x90
_ZN5alloc7raw_vec19RawVec$LT$T$C$A$GT$14current_memory17hd38b7bdacc8fc93aE:
.seh_proc _ZN5alloc7raw_vec19RawVec$LT$T$C$A$GT$14current_memory17hd38b7bdacc8fc93aE
	subq	$136, %rsp
	.seh_stackalloc 136
	.seh_endprologue
	movq	%rdx, 80(%rsp)
	movq	%rcx, 88(%rsp)
	movq	%rcx, 96(%rsp)
	movl	$8, %eax
	cmpq	$0, %rax
	jne	.LBB159_3
	movb	$1, 111(%rsp)
	jmp	.LBB159_4
.LBB159_3:
	movq	80(%rsp), %rax
	cmpq	$0, 8(%rax)
	sete	%al
	andb	$1, %al
	movb	%al, 111(%rsp)
.LBB159_4:
	testb	$1, 111(%rsp)
	jne	.LBB159_6
	movq	80(%rsp), %rax
	movq	8(%rax), %rcx
	callq	_ZN4core5alloc6layout6Layout5array17h7f40d6793ac25117E
	movq	%rax, 64(%rsp)
	movq	%rdx, 72(%rsp)
	jmp	.LBB159_8
.LBB159_6:
	movq	88(%rsp), %rax
	movq	$0, 16(%rax)
.LBB159_7:
	movq	96(%rsp), %rax
	addq	$136, %rsp
	retq
.LBB159_8:
	movq	72(%rsp), %rdx
	movq	64(%rsp), %rcx
	leaq	__unnamed_16(%rip), %r8
	callq	_ZN4core6result19Result$LT$T$C$E$GT$16unwrap_unchecked17hc36a523d396da1d5E
	movq	%rax, 48(%rsp)
	movq	%rdx, 56(%rsp)
	movq	80(%rsp), %rax
	movq	(%rax), %rcx
	callq	_ZN4core3ptr6unique15Unique$LT$T$GT$4cast17hba1b8558f5b659b7E
	movq	%rax, 40(%rsp)
	movq	40(%rsp), %rcx
	callq	_ZN50_$LT$T$u20$as$u20$core..convert..Into$LT$U$GT$$GT$4into17h1f7eda260e668591E
	movq	%rax, 32(%rsp)
	movq	88(%rsp), %rax
	movq	56(%rsp), %rcx
	movq	48(%rsp), %rdx
	movq	32(%rsp), %r8
	movq	%r8, 112(%rsp)
	movq	%rdx, 120(%rsp)
	movq	%rcx, 128(%rsp)
	movq	112(%rsp), %rcx
	movq	%rcx, (%rax)
	movq	120(%rsp), %rcx
	movq	%rcx, 8(%rax)
	movq	128(%rsp), %rcx
	movq	%rcx, 16(%rax)
	jmp	.LBB159_7
	.seh_endproc

	.def	_ZN5alloc7raw_vec19RawVec$LT$T$C$A$GT$14grow_amortized17h962cc38c363ee64dE;
	.scl	3;
	.type	32;
	.endef
	.section	.text,"xr",one_only,_ZN5alloc7raw_vec19RawVec$LT$T$C$A$GT$14grow_amortized17h962cc38c363ee64dE
	.p2align	4, 0x90
_ZN5alloc7raw_vec19RawVec$LT$T$C$A$GT$14grow_amortized17h962cc38c363ee64dE:
.seh_proc _ZN5alloc7raw_vec19RawVec$LT$T$C$A$GT$14grow_amortized17h962cc38c363ee64dE
	subq	$296, %rsp
	.seh_stackalloc 296
	.seh_endprologue
	movq	%r8, 104(%rsp)
	movq	%rdx, 112(%rsp)
	movq	%rcx, 120(%rsp)
	movl	$8, %eax
	cmpq	$0, %rax
	jne	.LBB160_3
	movq	$0, 152(%rsp)
	movq	144(%rsp), %rcx
	movq	152(%rsp), %rdx
	callq	_ZN50_$LT$T$u20$as$u20$core..convert..Into$LT$U$GT$$GT$4into17h028a4593fa4f0aa4E
	movq	%rax, 88(%rsp)
	movq	%rdx, 96(%rsp)
	jmp	.LBB160_24
.LBB160_3:
	movq	104(%rsp), %rdx
	movq	112(%rsp), %rcx
	callq	_ZN4core3num23_$LT$impl$u20$usize$GT$11checked_add17h1f8af730e989889fE
	movq	%rax, 72(%rsp)
	movq	%rdx, 80(%rsp)
	movq	80(%rsp), %r8
	movq	72(%rsp), %rdx
	movq	$0, 216(%rsp)
	movq	208(%rsp), %r9
	movq	216(%rsp), %rax
	leaq	184(%rsp), %rcx
	movq	%rax, 32(%rsp)
	callq	_ZN4core6option15Option$LT$T$GT$5ok_or17h70ce59080f86f12aE
	leaq	160(%rsp), %rcx
	leaq	184(%rsp), %rdx
	callq	_ZN79_$LT$core..result..Result$LT$T$C$E$GT$$u20$as$u20$core..ops..try_trait..Try$GT$6branch17hb4b05475352ade86E
	movq	160(%rsp), %rax
	testq	%rax, %rax
	je	.LBB160_8
	jmp	.LBB160_25
.LBB160_25:
	jmp	.LBB160_9
	ud2
.LBB160_8:
	movq	120(%rsp), %rax
	movq	168(%rsp), %rdx
	movq	8(%rax), %rcx
	shlq	$1, %rcx
	callq	_ZN4core3cmp3max17heed4b40a2924b796E
	movq	%rax, 64(%rsp)
	jmp	.LBB160_12
.LBB160_9:
	movq	168(%rsp), %rcx
	movq	176(%rsp), %rdx
	leaq	__unnamed_17(%rip), %r8
	callq	_ZN153_$LT$core..result..Result$LT$T$C$F$GT$$u20$as$u20$core..ops..try_trait..FromResidual$LT$core..result..Result$LT$core..convert..Infallible$C$E$GT$$GT$$GT$13from_residual17hfd50743fae304e18E
	movq	%rdx, 136(%rsp)
	movq	%rax, 128(%rsp)
	jmp	.LBB160_11
.LBB160_11:
	jmp	.LBB160_22
.LBB160_12:
	movq	64(%rsp), %rdx
	movl	$4, %ecx
	callq	_ZN4core3cmp3max17heed4b40a2924b796E
	movq	%rax, 56(%rsp)
	movq	56(%rsp), %rcx
	callq	_ZN4core5alloc6layout6Layout5array17h7f40d6793ac25117E
	movq	%rax, 40(%rsp)
	movq	%rdx, 48(%rsp)
	movq	120(%rsp), %rdx
	leaq	272(%rsp), %rcx
	callq	_ZN5alloc7raw_vec19RawVec$LT$T$C$A$GT$14current_memory17hd38b7bdacc8fc93aE
	movq	48(%rsp), %r8
	movq	40(%rsp), %rdx
	movq	120(%rsp), %rax
	leaq	248(%rsp), %rcx
	leaq	272(%rsp), %r9
	movq	%rax, 32(%rsp)
	callq	_ZN5alloc7raw_vec11finish_grow17hc9fbd3d7ee295726E
	leaq	224(%rsp), %rcx
	leaq	248(%rsp), %rdx
	callq	_ZN79_$LT$core..result..Result$LT$T$C$E$GT$$u20$as$u20$core..ops..try_trait..Try$GT$6branch17h0c23e8264062688cE
	movq	224(%rsp), %rax
	testq	%rax, %rax
	je	.LBB160_19
	jmp	.LBB160_26
.LBB160_26:
	jmp	.LBB160_20
	ud2
.LBB160_19:
	movq	56(%rsp), %r9
	movq	120(%rsp), %rcx
	movq	232(%rsp), %rdx
	movq	240(%rsp), %r8
	callq	_ZN5alloc7raw_vec19RawVec$LT$T$C$A$GT$15set_ptr_and_cap17hea8822b4750db6f1E
	jmp	.LBB160_23
.LBB160_20:
	movq	232(%rsp), %rcx
	movq	240(%rsp), %rdx
	leaq	__unnamed_18(%rip), %r8
	callq	_ZN153_$LT$core..result..Result$LT$T$C$F$GT$$u20$as$u20$core..ops..try_trait..FromResidual$LT$core..result..Result$LT$core..convert..Infallible$C$E$GT$$GT$$GT$13from_residual17h7183f811ae1d70b6E
	movq	%rdx, 136(%rsp)
	movq	%rax, 128(%rsp)
	jmp	.LBB160_11
.LBB160_22:
	movq	128(%rsp), %rax
	movq	136(%rsp), %rdx
	addq	$296, %rsp
	retq
.LBB160_23:
	movabsq	$-9223372036854775807, %rax
	movq	%rax, 136(%rsp)
	jmp	.LBB160_22
.LBB160_24:
	movq	96(%rsp), %rax
	movq	88(%rsp), %rcx
	movq	%rcx, 128(%rsp)
	movq	%rax, 136(%rsp)
	jmp	.LBB160_22
	.seh_endproc

	.def	_ZN5alloc7raw_vec19RawVec$LT$T$C$A$GT$15set_ptr_and_cap17hea8822b4750db6f1E;
	.scl	3;
	.type	32;
	.endef
	.section	.text,"xr",one_only,_ZN5alloc7raw_vec19RawVec$LT$T$C$A$GT$15set_ptr_and_cap17hea8822b4750db6f1E
	.p2align	4, 0x90
_ZN5alloc7raw_vec19RawVec$LT$T$C$A$GT$15set_ptr_and_cap17hea8822b4750db6f1E:
.seh_proc _ZN5alloc7raw_vec19RawVec$LT$T$C$A$GT$15set_ptr_and_cap17hea8822b4750db6f1E
	subq	$88, %rsp
	.seh_stackalloc 88
	.seh_endprologue
	movq	%r9, 48(%rsp)
	movq	%r8, 56(%rsp)
	movq	%rdx, %rax
	movq	56(%rsp), %rdx
	movq	%rax, 64(%rsp)
	movq	%rcx, %rax
	movq	64(%rsp), %rcx
	movq	%rax, 72(%rsp)
	callq	_ZN4core3ptr8non_null16NonNull$LT$T$GT$4cast17hd3f622afa89147d7E
	movq	%rax, 80(%rsp)
	movq	80(%rsp), %rcx
	callq	_ZN4core3ptr8non_null16NonNull$LT$T$GT$6as_ptr17hd9acda423696ccd2E
	movq	%rax, 40(%rsp)
	movq	40(%rsp), %rcx
	callq	_ZN4core3ptr6unique15Unique$LT$T$GT$13new_unchecked17h1203b09ae95f8643E
	movq	%rax, 32(%rsp)
	movq	72(%rsp), %rax
	movq	48(%rsp), %rcx
	movq	32(%rsp), %rdx
	movq	%rdx, (%rax)
	movq	%rcx, 8(%rax)
	addq	$88, %rsp
	retq
	.seh_endproc

	.def	_ZN5alloc7raw_vec19RawVec$LT$T$C$A$GT$16reserve_for_push17h105089010f4c023dE;
	.scl	3;
	.type	32;
	.endef
	.section	.text,"xr",one_only,_ZN5alloc7raw_vec19RawVec$LT$T$C$A$GT$16reserve_for_push17h105089010f4c023dE
	.p2align	4, 0x90
_ZN5alloc7raw_vec19RawVec$LT$T$C$A$GT$16reserve_for_push17h105089010f4c023dE:
.seh_proc _ZN5alloc7raw_vec19RawVec$LT$T$C$A$GT$16reserve_for_push17h105089010f4c023dE
	subq	$56, %rsp
	.seh_stackalloc 56
	.seh_endprologue
	movl	$1, %r8d
	callq	_ZN5alloc7raw_vec19RawVec$LT$T$C$A$GT$14grow_amortized17h962cc38c363ee64dE
	movq	%rax, 40(%rsp)
	movq	%rdx, 48(%rsp)
	movq	48(%rsp), %rdx
	movq	40(%rsp), %rcx
	callq	_ZN5alloc7raw_vec14handle_reserve17h46c0591eeef80f25E
	nop
	addq	$56, %rsp
	retq
	.seh_endproc

	.def	_ZN5alloc7raw_vec19RawVec$LT$T$C$A$GT$17from_raw_parts_in17h5aaace6fded0587fE;
	.scl	3;
	.type	32;
	.endef
	.section	.text,"xr",one_only,_ZN5alloc7raw_vec19RawVec$LT$T$C$A$GT$17from_raw_parts_in17h5aaace6fded0587fE
	.p2align	4, 0x90
_ZN5alloc7raw_vec19RawVec$LT$T$C$A$GT$17from_raw_parts_in17h5aaace6fded0587fE:
.Lfunc_begin15:
.seh_proc _ZN5alloc7raw_vec19RawVec$LT$T$C$A$GT$17from_raw_parts_in17h5aaace6fded0587fE
	.seh_handler __CxxFrameHandler3, @unwind, @except
	pushq	%rbp
	.seh_pushreg %rbp
	subq	$80, %rsp
	.seh_stackalloc 80
	leaq	80(%rsp), %rbp
	.seh_setframe %rbp, 80
	.seh_endprologue
	movq	$-2, -8(%rbp)
	movq	%rdx, -40(%rbp)
.Ltmp64:
	callq	_ZN4core3ptr6unique15Unique$LT$T$GT$13new_unchecked17h1203b09ae95f8643E
.Ltmp65:
	movq	%rax, -32(%rbp)
	jmp	.LBB163_2
.LBB163_2:
	movq	-40(%rbp), %rax
	movq	-32(%rbp), %rcx
	movq	%rcx, -24(%rbp)
	movq	%rax, -16(%rbp)
	movq	-24(%rbp), %rax
	movq	-16(%rbp), %rdx
	addq	$80, %rsp
	popq	%rbp
	retq
	.seh_handlerdata
	.long	($cppxdata$_ZN5alloc7raw_vec19RawVec$LT$T$C$A$GT$17from_raw_parts_in17h5aaace6fded0587fE)@IMGREL
	.section	.text,"xr",one_only,_ZN5alloc7raw_vec19RawVec$LT$T$C$A$GT$17from_raw_parts_in17h5aaace6fded0587fE
	.seh_endproc
	.def	"?dtor$1@?0?_ZN5alloc7raw_vec19RawVec$LT$T$C$A$GT$17from_raw_parts_in17h5aaace6fded0587fE@4HA";
	.scl	3;
	.type	32;
	.endef
	.p2align	4, 0x90
"?dtor$1@?0?_ZN5alloc7raw_vec19RawVec$LT$T$C$A$GT$17from_raw_parts_in17h5aaace6fded0587fE@4HA":
.seh_proc "?dtor$1@?0?_ZN5alloc7raw_vec19RawVec$LT$T$C$A$GT$17from_raw_parts_in17h5aaace6fded0587fE@4HA"
.LBB163_1:
	movq	%rdx, 16(%rsp)
	pushq	%rbp
	.seh_pushreg %rbp
	subq	$32, %rsp
	.seh_stackalloc 32
	leaq	80(%rdx), %rbp
	.seh_endprologue
	addq	$32, %rsp
	popq	%rbp
	retq
.Lfunc_end15:
	.seh_handlerdata
	.section	.text,"xr",one_only,_ZN5alloc7raw_vec19RawVec$LT$T$C$A$GT$17from_raw_parts_in17h5aaace6fded0587fE
	.seh_endproc
	.section	.xdata,"dr",associative,_ZN5alloc7raw_vec19RawVec$LT$T$C$A$GT$17from_raw_parts_in17h5aaace6fded0587fE
	.p2align	2
$cppxdata$_ZN5alloc7raw_vec19RawVec$LT$T$C$A$GT$17from_raw_parts_in17h5aaace6fded0587fE:
	.long	429065506
	.long	1
	.long	($stateUnwindMap$_ZN5alloc7raw_vec19RawVec$LT$T$C$A$GT$17from_raw_parts_in17h5aaace6fded0587fE)@IMGREL
	.long	0
	.long	0
	.long	3
	.long	($ip2state$_ZN5alloc7raw_vec19RawVec$LT$T$C$A$GT$17from_raw_parts_in17h5aaace6fded0587fE)@IMGREL
	.long	72
	.long	0
	.long	1
$stateUnwindMap$_ZN5alloc7raw_vec19RawVec$LT$T$C$A$GT$17from_raw_parts_in17h5aaace6fded0587fE:
	.long	-1
	.long	"?dtor$1@?0?_ZN5alloc7raw_vec19RawVec$LT$T$C$A$GT$17from_raw_parts_in17h5aaace6fded0587fE@4HA"@IMGREL
$ip2state$_ZN5alloc7raw_vec19RawVec$LT$T$C$A$GT$17from_raw_parts_in17h5aaace6fded0587fE:
	.long	.Lfunc_begin15@IMGREL
	.long	-1
	.long	.Ltmp64@IMGREL+1
	.long	0
	.long	.Ltmp65@IMGREL+1
	.long	-1
	.section	.text,"xr",one_only,_ZN5alloc7raw_vec19RawVec$LT$T$C$A$GT$17from_raw_parts_in17h5aaace6fded0587fE

	.def	_ZN5alloc7raw_vec19RawVec$LT$T$C$A$GT$3ptr17hfc952ef1e7d64c8fE;
	.scl	3;
	.type	32;
	.endef
	.section	.text,"xr",one_only,_ZN5alloc7raw_vec19RawVec$LT$T$C$A$GT$3ptr17hfc952ef1e7d64c8fE
	.p2align	4, 0x90
_ZN5alloc7raw_vec19RawVec$LT$T$C$A$GT$3ptr17hfc952ef1e7d64c8fE:
.seh_proc _ZN5alloc7raw_vec19RawVec$LT$T$C$A$GT$3ptr17hfc952ef1e7d64c8fE
	subq	$40, %rsp
	.seh_stackalloc 40
	.seh_endprologue
	movq	(%rcx), %rcx
	callq	_ZN4core3ptr6unique15Unique$LT$T$GT$6as_ptr17h6e3e0d78e609d02dE
	movq	%rax, 32(%rsp)
	movq	32(%rsp), %rax
	addq	$40, %rsp
	retq
	.seh_endproc

	.def	_ZN63_$LT$I$u20$as$u20$core..iter..traits..collect..IntoIterator$GT$9into_iter17h76c4bc7a472045d8E;
	.scl	3;
	.type	32;
	.endef
	.section	.text,"xr",one_only,_ZN63_$LT$I$u20$as$u20$core..iter..traits..collect..IntoIterator$GT$9into_iter17h76c4bc7a472045d8E
	.p2align	4, 0x90
_ZN63_$LT$I$u20$as$u20$core..iter..traits..collect..IntoIterator$GT$9into_iter17h76c4bc7a472045d8E:
.seh_proc _ZN63_$LT$I$u20$as$u20$core..iter..traits..collect..IntoIterator$GT$9into_iter17h76c4bc7a472045d8E
	subq	$40, %rsp
	.seh_stackalloc 40
	.seh_endprologue
	movq	%rcx, %rax
	movq	%rax, 32(%rsp)
	movl	$40, %r8d
	callq	memcpy
	movq	32(%rsp), %rax
	addq	$40, %rsp
	retq
	.seh_endproc

	.def	_ZN63_$LT$I$u20$as$u20$core..iter..traits..collect..IntoIterator$GT$9into_iter17h9cfda341a0f211ceE;
	.scl	3;
	.type	32;
	.endef
	.section	.text,"xr",one_only,_ZN63_$LT$I$u20$as$u20$core..iter..traits..collect..IntoIterator$GT$9into_iter17h9cfda341a0f211ceE
	.p2align	4, 0x90
_ZN63_$LT$I$u20$as$u20$core..iter..traits..collect..IntoIterator$GT$9into_iter17h9cfda341a0f211ceE:
	movq	%rcx, %rax
	movq	(%rdx), %r8
	movq	%r8, (%rcx)
	movq	8(%rdx), %r8
	movq	%r8, 8(%rcx)
	movq	16(%rdx), %rdx
	movq	%rdx, 16(%rcx)
	retq

	.def	_ZN63_$LT$alloc..alloc..Global$u20$as$u20$core..alloc..Allocator$GT$10deallocate17h0e0be878c9a007a6E;
	.scl	3;
	.type	32;
	.endef
	.section	.text,"xr",one_only,_ZN63_$LT$alloc..alloc..Global$u20$as$u20$core..alloc..Allocator$GT$10deallocate17h0e0be878c9a007a6E
	.p2align	4, 0x90
_ZN63_$LT$alloc..alloc..Global$u20$as$u20$core..alloc..Allocator$GT$10deallocate17h0e0be878c9a007a6E:
.seh_proc _ZN63_$LT$alloc..alloc..Global$u20$as$u20$core..alloc..Allocator$GT$10deallocate17h0e0be878c9a007a6E
	subq	$72, %rsp
	.seh_stackalloc 72
	.seh_endprologue
	movq	%rdx, 40(%rsp)
	movq	%r8, 56(%rsp)
	movq	%r9, 64(%rsp)
	leaq	56(%rsp), %rcx
	callq	_ZN4core5alloc6layout6Layout4size17h1b5ace7fc5cb046eE
	movq	%rax, 48(%rsp)
	movq	48(%rsp), %rax
	cmpq	$0, %rax
	jne	.LBB167_3
	jmp	.LBB167_6
.LBB167_3:
	movq	40(%rsp), %rcx
	callq	_ZN4core3ptr8non_null16NonNull$LT$T$GT$6as_ptr17h3dca4ffcd4a38b8cE
	movq	%rax, 32(%rsp)
	movq	32(%rsp), %rcx
	movq	56(%rsp), %rdx
	movq	64(%rsp), %r8
	callq	_ZN5alloc5alloc7dealloc17h23e80c4f162d505aE
	jmp	.LBB167_6
.LBB167_6:
	addq	$72, %rsp
	retq
	.seh_endproc

	.def	_ZN63_$LT$alloc..alloc..Global$u20$as$u20$core..alloc..Allocator$GT$4grow17h1efcf400de2a99b0E;
	.scl	3;
	.type	32;
	.endef
	.section	.text,"xr",one_only,_ZN63_$LT$alloc..alloc..Global$u20$as$u20$core..alloc..Allocator$GT$4grow17h1efcf400de2a99b0E
	.p2align	4, 0x90
_ZN63_$LT$alloc..alloc..Global$u20$as$u20$core..alloc..Allocator$GT$4grow17h1efcf400de2a99b0E:
.seh_proc _ZN63_$LT$alloc..alloc..Global$u20$as$u20$core..alloc..Allocator$GT$4grow17h1efcf400de2a99b0E
	subq	$72, %rsp
	.seh_stackalloc 72
	.seh_endprologue
	movq	120(%rsp), %rax
	movq	112(%rsp), %r10
	xorl	%r11d, %r11d
	movq	%r10, 32(%rsp)
	movq	%rax, 40(%rsp)
	movl	$0, 48(%rsp)
	callq	_ZN5alloc5alloc6Global9grow_impl17hfe0ba52c5714007aE
	movq	%rax, 56(%rsp)
	movq	%rdx, 64(%rsp)
	movq	64(%rsp), %rdx
	movq	56(%rsp), %rax
	addq	$72, %rsp
	retq
	.seh_endproc

	.def	_ZN63_$LT$alloc..alloc..Global$u20$as$u20$core..alloc..Allocator$GT$8allocate17ha141e8a24ecdb301E;
	.scl	3;
	.type	32;
	.endef
	.section	.text,"xr",one_only,_ZN63_$LT$alloc..alloc..Global$u20$as$u20$core..alloc..Allocator$GT$8allocate17ha141e8a24ecdb301E
	.p2align	4, 0x90
_ZN63_$LT$alloc..alloc..Global$u20$as$u20$core..alloc..Allocator$GT$8allocate17ha141e8a24ecdb301E:
.seh_proc _ZN63_$LT$alloc..alloc..Global$u20$as$u20$core..alloc..Allocator$GT$8allocate17ha141e8a24ecdb301E
	subq	$56, %rsp
	.seh_stackalloc 56
	.seh_endprologue
	xorl	%r9d, %r9d
	callq	_ZN5alloc5alloc6Global10alloc_impl17h0e5a59f3b097d2e8E
	movq	%rax, 40(%rsp)
	movq	%rdx, 48(%rsp)
	movq	48(%rsp), %rdx
	movq	40(%rsp), %rax
	addq	$56, %rsp
	retq
	.seh_endproc

	.def	_ZN63_$LT$alloc..alloc..Global$u20$as$u20$core..default..Default$GT$7default17h699d0f7b426056daE;
	.scl	3;
	.type	32;
	.endef
	.section	.text,"xr",one_only,_ZN63_$LT$alloc..alloc..Global$u20$as$u20$core..default..Default$GT$7default17h699d0f7b426056daE
	.p2align	4, 0x90
_ZN63_$LT$alloc..alloc..Global$u20$as$u20$core..default..Default$GT$7default17h699d0f7b426056daE:
	retq

	.def	_ZN66_$LT$core..alloc..layout..Layout$u20$as$u20$core..clone..Clone$GT$5clone17h122ab5f4557e6d00E;
	.scl	3;
	.type	32;
	.endef
	.section	.text,"xr",one_only,_ZN66_$LT$core..alloc..layout..Layout$u20$as$u20$core..clone..Clone$GT$5clone17h122ab5f4557e6d00E
	.p2align	4, 0x90
_ZN66_$LT$core..alloc..layout..Layout$u20$as$u20$core..clone..Clone$GT$5clone17h122ab5f4557e6d00E:
	movq	(%rcx), %rax
	movq	8(%rcx), %rdx
	retq

	.def	_ZN70_$LT$alloc..vec..Vec$LT$T$C$A$GT$$u20$as$u20$core..ops..drop..Drop$GT$4drop17h290d955cdbd0c94fE;
	.scl	3;
	.type	32;
	.endef
	.section	.text,"xr",one_only,_ZN70_$LT$alloc..vec..Vec$LT$T$C$A$GT$$u20$as$u20$core..ops..drop..Drop$GT$4drop17h290d955cdbd0c94fE
	.p2align	4, 0x90
_ZN70_$LT$alloc..vec..Vec$LT$T$C$A$GT$$u20$as$u20$core..ops..drop..Drop$GT$4drop17h290d955cdbd0c94fE:
.seh_proc _ZN70_$LT$alloc..vec..Vec$LT$T$C$A$GT$$u20$as$u20$core..ops..drop..Drop$GT$4drop17h290d955cdbd0c94fE
	subq	$56, %rsp
	.seh_stackalloc 56
	.seh_endprologue
	movq	%rcx, 40(%rsp)
	callq	_ZN5alloc3vec16Vec$LT$T$C$A$GT$10as_mut_ptr17h2406b1cd4da1fd53E
	movq	%rax, 48(%rsp)
	movq	48(%rsp), %rcx
	movq	40(%rsp), %rax
	movq	16(%rax), %rdx
	callq	_ZN4core3ptr24slice_from_raw_parts_mut17h7122a121933caf3cE
	jmp	.LBB172_3
.LBB172_3:
	addq	$56, %rsp
	retq
	.seh_endproc

	.def	_ZN75_$LT$core..option..Option$LT$T$GT$$u20$as$u20$core..ops..try_trait..Try$GT$6branch17h1cde9292dd7f92a0E;
	.scl	3;
	.type	32;
	.endef
	.section	.text,"xr",one_only,_ZN75_$LT$core..option..Option$LT$T$GT$$u20$as$u20$core..ops..try_trait..Try$GT$6branch17h1cde9292dd7f92a0E
	.p2align	4, 0x90
_ZN75_$LT$core..option..Option$LT$T$GT$$u20$as$u20$core..ops..try_trait..Try$GT$6branch17h1cde9292dd7f92a0E:
.seh_proc _ZN75_$LT$core..option..Option$LT$T$GT$$u20$as$u20$core..ops..try_trait..Try$GT$6branch17h1cde9292dd7f92a0E
	subq	$32, %rsp
	.seh_stackalloc 32
	.seh_endprologue
	movq	%rcx, (%rsp)
	movq	%rdx, 8(%rsp)
	movq	(%rsp), %rax
	testq	%rax, %rax
	je	.LBB173_2
	jmp	.LBB173_5
.LBB173_5:
	jmp	.LBB173_3
	ud2
.LBB173_2:
	movq	$1, 16(%rsp)
	jmp	.LBB173_4
.LBB173_3:
	movq	8(%rsp), %rax
	movq	%rax, 24(%rsp)
	movq	$0, 16(%rsp)
.LBB173_4:
	movq	16(%rsp), %rax
	movq	24(%rsp), %rdx
	addq	$32, %rsp
	retq
	.seh_endproc

	.def	_ZN77_$LT$alloc..raw_vec..RawVec$LT$T$C$A$GT$$u20$as$u20$core..ops..drop..Drop$GT$4drop17he5f6db9f67df74faE;
	.scl	3;
	.type	32;
	.endef
	.section	.text,"xr",one_only,_ZN77_$LT$alloc..raw_vec..RawVec$LT$T$C$A$GT$$u20$as$u20$core..ops..drop..Drop$GT$4drop17he5f6db9f67df74faE
	.p2align	4, 0x90
_ZN77_$LT$alloc..raw_vec..RawVec$LT$T$C$A$GT$$u20$as$u20$core..ops..drop..Drop$GT$4drop17he5f6db9f67df74faE:
.seh_proc _ZN77_$LT$alloc..raw_vec..RawVec$LT$T$C$A$GT$$u20$as$u20$core..ops..drop..Drop$GT$4drop17he5f6db9f67df74faE
	subq	$72, %rsp
	.seh_stackalloc 72
	.seh_endprologue
	movq	%rcx, %rdx
	movq	%rdx, 40(%rsp)
	leaq	48(%rsp), %rcx
	callq	_ZN5alloc7raw_vec19RawVec$LT$T$C$A$GT$14current_memory17hd38b7bdacc8fc93aE
	movl	$1, %eax
	xorl	%ecx, %ecx
	cmpq	$0, 64(%rsp)
	cmoveq	%rcx, %rax
	cmpq	$1, %rax
	jne	.LBB174_3
	movq	40(%rsp), %rcx
	movq	48(%rsp), %rdx
	movq	56(%rsp), %r8
	movq	64(%rsp), %r9
	callq	_ZN63_$LT$alloc..alloc..Global$u20$as$u20$core..alloc..Allocator$GT$10deallocate17h0e0be878c9a007a6E
	jmp	.LBB174_4
.LBB174_3:
	addq	$72, %rsp
	retq
.LBB174_4:
	jmp	.LBB174_3
	.seh_endproc

	.def	_ZN78_$LT$alloc..collections..TryReserveErrorKind$u20$as$u20$core..clone..Clone$GT$5clone17h1210c3b70e8fb284E;
	.scl	3;
	.type	32;
	.endef
	.section	.text,"xr",one_only,_ZN78_$LT$alloc..collections..TryReserveErrorKind$u20$as$u20$core..clone..Clone$GT$5clone17h1210c3b70e8fb284E
	.p2align	4, 0x90
_ZN78_$LT$alloc..collections..TryReserveErrorKind$u20$as$u20$core..clone..Clone$GT$5clone17h1210c3b70e8fb284E:
.seh_proc _ZN78_$LT$alloc..collections..TryReserveErrorKind$u20$as$u20$core..clone..Clone$GT$5clone17h1210c3b70e8fb284E
	subq	$72, %rsp
	.seh_stackalloc 72
	.seh_endprologue
	movq	%rcx, 64(%rsp)
	movq	64(%rsp), %rax
	movq	8(%rax), %rax
	testq	%rax, %rax
	setne	%al
	movzbl	%al, %eax
	je	.LBB175_2
	jmp	.LBB175_6
.LBB175_6:
	jmp	.LBB175_3
	ud2
.LBB175_2:
	movq	$0, 56(%rsp)
	jmp	.LBB175_5
.LBB175_3:
	movq	64(%rsp), %rcx
	callq	_ZN66_$LT$core..alloc..layout..Layout$u20$as$u20$core..clone..Clone$GT$5clone17h122ab5f4557e6d00E
	movq	%rax, 32(%rsp)
	movq	%rdx, 40(%rsp)
	movq	40(%rsp), %rax
	movq	32(%rsp), %rcx
	movq	%rcx, 48(%rsp)
	movq	%rax, 56(%rsp)
.LBB175_5:
	movq	48(%rsp), %rax
	movq	56(%rsp), %rdx
	addq	$72, %rsp
	retq
	.seh_endproc

	.def	_ZN79_$LT$core..result..Result$LT$T$C$E$GT$$u20$as$u20$core..ops..try_trait..Try$GT$6branch17h04bca0fe653e0294E;
	.scl	3;
	.type	32;
	.endef
	.section	.text,"xr",one_only,_ZN79_$LT$core..result..Result$LT$T$C$E$GT$$u20$as$u20$core..ops..try_trait..Try$GT$6branch17h04bca0fe653e0294E
	.p2align	4, 0x90
_ZN79_$LT$core..result..Result$LT$T$C$E$GT$$u20$as$u20$core..ops..try_trait..Try$GT$6branch17h04bca0fe653e0294E:
.seh_proc _ZN79_$LT$core..result..Result$LT$T$C$E$GT$$u20$as$u20$core..ops..try_trait..Try$GT$6branch17h04bca0fe653e0294E
	subq	$24, %rsp
	.seh_stackalloc 24
	.seh_endprologue
	movq	%rcx, (%rsp)
	movq	(%rsp), %rax
	testq	%rax, %rax
	sete	%al
	movzbl	%al, %eax
	jne	.LBB176_2
	jmp	.LBB176_5
.LBB176_5:
	jmp	.LBB176_3
	ud2
.LBB176_2:
	movq	(%rsp), %rax
	movq	%rax, 8(%rsp)
	jmp	.LBB176_4
.LBB176_3:
	movq	$0, 8(%rsp)
.LBB176_4:
	movq	8(%rsp), %rax
	addq	$24, %rsp
	retq
	.seh_endproc

	.def	_ZN79_$LT$core..result..Result$LT$T$C$E$GT$$u20$as$u20$core..ops..try_trait..Try$GT$6branch17h0c23e8264062688cE;
	.scl	3;
	.type	32;
	.endef
	.section	.text,"xr",one_only,_ZN79_$LT$core..result..Result$LT$T$C$E$GT$$u20$as$u20$core..ops..try_trait..Try$GT$6branch17h0c23e8264062688cE
	.p2align	4, 0x90
_ZN79_$LT$core..result..Result$LT$T$C$E$GT$$u20$as$u20$core..ops..try_trait..Try$GT$6branch17h0c23e8264062688cE:
.seh_proc _ZN79_$LT$core..result..Result$LT$T$C$E$GT$$u20$as$u20$core..ops..try_trait..Try$GT$6branch17h0c23e8264062688cE
	subq	$40, %rsp
	.seh_stackalloc 40
	.seh_endprologue
	movq	%rdx, (%rsp)
	movq	%rcx, 8(%rsp)
	movq	%rcx, 16(%rsp)
	movq	(%rdx), %rax
	testq	%rax, %rax
	je	.LBB177_2
	jmp	.LBB177_5
.LBB177_5:
	jmp	.LBB177_3
	ud2
.LBB177_2:
	movq	8(%rsp), %rax
	movq	(%rsp), %rcx
	movq	8(%rcx), %rdx
	movq	16(%rcx), %rcx
	movq	%rdx, 8(%rax)
	movq	%rcx, 16(%rax)
	movq	$0, (%rax)
	jmp	.LBB177_4
.LBB177_3:
	movq	8(%rsp), %rax
	movq	(%rsp), %rcx
	movq	8(%rcx), %rdx
	movq	16(%rcx), %rcx
	movq	%rdx, 24(%rsp)
	movq	%rcx, 32(%rsp)
	movq	24(%rsp), %rdx
	movq	32(%rsp), %rcx
	movq	%rdx, 8(%rax)
	movq	%rcx, 16(%rax)
	movq	$1, (%rax)
.LBB177_4:
	movq	16(%rsp), %rax
	addq	$40, %rsp
	retq
	.seh_endproc

	.def	_ZN79_$LT$core..result..Result$LT$T$C$E$GT$$u20$as$u20$core..ops..try_trait..Try$GT$6branch17h29738190cf67be97E;
	.scl	3;
	.type	32;
	.endef
	.section	.text,"xr",one_only,_ZN79_$LT$core..result..Result$LT$T$C$E$GT$$u20$as$u20$core..ops..try_trait..Try$GT$6branch17h29738190cf67be97E
	.p2align	4, 0x90
_ZN79_$LT$core..result..Result$LT$T$C$E$GT$$u20$as$u20$core..ops..try_trait..Try$GT$6branch17h29738190cf67be97E:
.seh_proc _ZN79_$LT$core..result..Result$LT$T$C$E$GT$$u20$as$u20$core..ops..try_trait..Try$GT$6branch17h29738190cf67be97E
	subq	$40, %rsp
	.seh_stackalloc 40
	.seh_endprologue
	movq	%rcx, (%rsp)
	movq	%rdx, 8(%rsp)
	movq	(%rsp), %rax
	testq	%rax, %rax
	sete	%al
	movzbl	%al, %eax
	jne	.LBB178_2
	jmp	.LBB178_5
.LBB178_5:
	jmp	.LBB178_3
	ud2
.LBB178_2:
	movq	(%rsp), %rcx
	movq	8(%rsp), %rax
	movq	%rcx, 16(%rsp)
	movq	%rax, 24(%rsp)
	jmp	.LBB178_4
.LBB178_3:
	movq	$0, 16(%rsp)
.LBB178_4:
	movq	16(%rsp), %rax
	movq	24(%rsp), %rdx
	addq	$40, %rsp
	retq
	.seh_endproc

	.def	_ZN79_$LT$core..result..Result$LT$T$C$E$GT$$u20$as$u20$core..ops..try_trait..Try$GT$6branch17h556fec28b1921100E;
	.scl	3;
	.type	32;
	.endef
	.section	.text,"xr",one_only,_ZN79_$LT$core..result..Result$LT$T$C$E$GT$$u20$as$u20$core..ops..try_trait..Try$GT$6branch17h556fec28b1921100E
	.p2align	4, 0x90
_ZN79_$LT$core..result..Result$LT$T$C$E$GT$$u20$as$u20$core..ops..try_trait..Try$GT$6branch17h556fec28b1921100E:
.seh_proc _ZN79_$LT$core..result..Result$LT$T$C$E$GT$$u20$as$u20$core..ops..try_trait..Try$GT$6branch17h556fec28b1921100E
	subq	$40, %rsp
	.seh_stackalloc 40
	.seh_endprologue
	movq	%rdx, (%rsp)
	movq	%rcx, 8(%rsp)
	movq	%rcx, 16(%rsp)
	movq	(%rdx), %rax
	testq	%rax, %rax
	je	.LBB179_2
	jmp	.LBB179_5
.LBB179_5:
	jmp	.LBB179_3
	ud2
.LBB179_2:
	movq	8(%rsp), %rax
	movq	(%rsp), %rcx
	movq	8(%rcx), %rdx
	movq	16(%rcx), %rcx
	movq	%rdx, 8(%rax)
	movq	%rcx, 16(%rax)
	movq	$0, (%rax)
	jmp	.LBB179_4
.LBB179_3:
	movq	8(%rsp), %rax
	movq	(%rsp), %rcx
	movq	8(%rcx), %rdx
	movq	16(%rcx), %rcx
	movq	%rdx, 24(%rsp)
	movq	%rcx, 32(%rsp)
	movq	24(%rsp), %rdx
	movq	32(%rsp), %rcx
	movq	%rdx, 8(%rax)
	movq	%rcx, 16(%rax)
	movq	$1, (%rax)
.LBB179_4:
	movq	16(%rsp), %rax
	addq	$40, %rsp
	retq
	.seh_endproc

	.def	_ZN79_$LT$core..result..Result$LT$T$C$E$GT$$u20$as$u20$core..ops..try_trait..Try$GT$6branch17h87196cf8d8392696E;
	.scl	3;
	.type	32;
	.endef
	.section	.text,"xr",one_only,_ZN79_$LT$core..result..Result$LT$T$C$E$GT$$u20$as$u20$core..ops..try_trait..Try$GT$6branch17h87196cf8d8392696E
	.p2align	4, 0x90
_ZN79_$LT$core..result..Result$LT$T$C$E$GT$$u20$as$u20$core..ops..try_trait..Try$GT$6branch17h87196cf8d8392696E:
.seh_proc _ZN79_$LT$core..result..Result$LT$T$C$E$GT$$u20$as$u20$core..ops..try_trait..Try$GT$6branch17h87196cf8d8392696E
	subq	$24, %rsp
	.seh_stackalloc 24
	.seh_endprologue
	movq	%rcx, (%rsp)
	movq	(%rsp), %rax
	testq	%rax, %rax
	sete	%al
	movzbl	%al, %eax
	jne	.LBB180_2
	jmp	.LBB180_5
.LBB180_5:
	jmp	.LBB180_3
	ud2
.LBB180_2:
	movq	(%rsp), %rax
	movq	%rax, 8(%rsp)
	jmp	.LBB180_4
.LBB180_3:
	movq	$0, 8(%rsp)
.LBB180_4:
	movq	8(%rsp), %rax
	addq	$24, %rsp
	retq
	.seh_endproc

	.def	_ZN79_$LT$core..result..Result$LT$T$C$E$GT$$u20$as$u20$core..ops..try_trait..Try$GT$6branch17h934c7cc8034e9ef5E;
	.scl	3;
	.type	32;
	.endef
	.section	.text,"xr",one_only,_ZN79_$LT$core..result..Result$LT$T$C$E$GT$$u20$as$u20$core..ops..try_trait..Try$GT$6branch17h934c7cc8034e9ef5E
	.p2align	4, 0x90
_ZN79_$LT$core..result..Result$LT$T$C$E$GT$$u20$as$u20$core..ops..try_trait..Try$GT$6branch17h934c7cc8034e9ef5E:
.seh_proc _ZN79_$LT$core..result..Result$LT$T$C$E$GT$$u20$as$u20$core..ops..try_trait..Try$GT$6branch17h934c7cc8034e9ef5E
	subq	$48, %rsp
	.seh_stackalloc 48
	.seh_endprologue
	movq	%rcx, (%rsp)
	movq	%rdx, 8(%rsp)
	movq	8(%rsp), %rax
	movabsq	$9223372036854775807, %rcx
	addq	%rcx, %rax
	setne	%al
	movzbl	%al, %eax
	je	.LBB181_2
	jmp	.LBB181_5
.LBB181_5:
	jmp	.LBB181_3
	ud2
.LBB181_2:
	movabsq	$-9223372036854775807, %rax
	movq	%rax, 24(%rsp)
	jmp	.LBB181_4
.LBB181_3:
	movq	(%rsp), %rcx
	movq	8(%rsp), %rax
	movq	%rcx, 32(%rsp)
	movq	%rax, 40(%rsp)
	movq	32(%rsp), %rcx
	movq	40(%rsp), %rax
	movq	%rcx, 16(%rsp)
	movq	%rax, 24(%rsp)
.LBB181_4:
	movq	16(%rsp), %rax
	movq	24(%rsp), %rdx
	addq	$48, %rsp
	retq
	.seh_endproc

	.def	_ZN79_$LT$core..result..Result$LT$T$C$E$GT$$u20$as$u20$core..ops..try_trait..Try$GT$6branch17ha93ad34b3f560146E;
	.scl	3;
	.type	32;
	.endef
	.section	.text,"xr",one_only,_ZN79_$LT$core..result..Result$LT$T$C$E$GT$$u20$as$u20$core..ops..try_trait..Try$GT$6branch17ha93ad34b3f560146E
	.p2align	4, 0x90
_ZN79_$LT$core..result..Result$LT$T$C$E$GT$$u20$as$u20$core..ops..try_trait..Try$GT$6branch17ha93ad34b3f560146E:
.seh_proc _ZN79_$LT$core..result..Result$LT$T$C$E$GT$$u20$as$u20$core..ops..try_trait..Try$GT$6branch17ha93ad34b3f560146E
	subq	$40, %rsp
	.seh_stackalloc 40
	.seh_endprologue
	movq	%rcx, (%rsp)
	movq	%rdx, 8(%rsp)
	movq	(%rsp), %rax
	testq	%rax, %rax
	je	.LBB182_2
	jmp	.LBB182_5
.LBB182_5:
	jmp	.LBB182_3
	ud2
.LBB182_2:
	movq	8(%rsp), %rax
	movq	%rax, 24(%rsp)
	movq	$0, 16(%rsp)
	jmp	.LBB182_4
.LBB182_3:
	movq	$1, 16(%rsp)
.LBB182_4:
	movq	16(%rsp), %rax
	movq	24(%rsp), %rdx
	addq	$40, %rsp
	retq
	.seh_endproc

	.def	_ZN79_$LT$core..result..Result$LT$T$C$E$GT$$u20$as$u20$core..ops..try_trait..Try$GT$6branch17hb4b05475352ade86E;
	.scl	3;
	.type	32;
	.endef
	.section	.text,"xr",one_only,_ZN79_$LT$core..result..Result$LT$T$C$E$GT$$u20$as$u20$core..ops..try_trait..Try$GT$6branch17hb4b05475352ade86E
	.p2align	4, 0x90
_ZN79_$LT$core..result..Result$LT$T$C$E$GT$$u20$as$u20$core..ops..try_trait..Try$GT$6branch17hb4b05475352ade86E:
.seh_proc _ZN79_$LT$core..result..Result$LT$T$C$E$GT$$u20$as$u20$core..ops..try_trait..Try$GT$6branch17hb4b05475352ade86E
	subq	$40, %rsp
	.seh_stackalloc 40
	.seh_endprologue
	movq	%rdx, (%rsp)
	movq	%rcx, 8(%rsp)
	movq	%rcx, 16(%rsp)
	movq	(%rdx), %rax
	testq	%rax, %rax
	je	.LBB183_2
	jmp	.LBB183_5
.LBB183_5:
	jmp	.LBB183_3
	ud2
.LBB183_2:
	movq	8(%rsp), %rax
	movq	(%rsp), %rcx
	movq	8(%rcx), %rcx
	movq	%rcx, 8(%rax)
	movq	$0, (%rax)
	jmp	.LBB183_4
.LBB183_3:
	movq	8(%rsp), %rax
	movq	(%rsp), %rcx
	movq	8(%rcx), %rdx
	movq	16(%rcx), %rcx
	movq	%rdx, 24(%rsp)
	movq	%rcx, 32(%rsp)
	movq	24(%rsp), %rdx
	movq	32(%rsp), %rcx
	movq	%rdx, 8(%rax)
	movq	%rcx, 16(%rax)
	movq	$1, (%rax)
.LBB183_4:
	movq	16(%rsp), %rax
	addq	$40, %rsp
	retq
	.seh_endproc

	.def	_ZN79_$LT$hashbrown..raw..RawTable$LT$T$C$A$GT$$u20$as$u20$core..ops..drop..Drop$GT$4drop17he04e8c0ebaf8ea4cE;
	.scl	3;
	.type	32;
	.endef
	.section	.text,"xr",one_only,_ZN79_$LT$hashbrown..raw..RawTable$LT$T$C$A$GT$$u20$as$u20$core..ops..drop..Drop$GT$4drop17he04e8c0ebaf8ea4cE
	.p2align	4, 0x90
_ZN79_$LT$hashbrown..raw..RawTable$LT$T$C$A$GT$$u20$as$u20$core..ops..drop..Drop$GT$4drop17he04e8c0ebaf8ea4cE:
.seh_proc _ZN79_$LT$hashbrown..raw..RawTable$LT$T$C$A$GT$$u20$as$u20$core..ops..drop..Drop$GT$4drop17he04e8c0ebaf8ea4cE
	subq	$56, %rsp
	.seh_stackalloc 56
	.seh_endprologue
	movq	%rcx, 40(%rsp)
	callq	_ZN9hashbrown3raw22RawTableInner$LT$A$GT$18is_empty_singleton17h69404a48bc037e6dE
	movb	%al, 55(%rsp)
	movb	55(%rsp), %al
	xorb	$-1, %al
	testb	$1, %al
	jne	.LBB184_3
.LBB184_2:
	addq	$56, %rsp
	retq
.LBB184_3:
	movq	40(%rsp), %rcx
	callq	_ZN9hashbrown3raw21RawTable$LT$T$C$A$GT$13drop_elements17h464421a951c5504aE
	movq	40(%rsp), %rcx
	callq	_ZN9hashbrown3raw21RawTable$LT$T$C$A$GT$12free_buckets17hfdd5492e606ae622E
	jmp	.LBB184_2
	.seh_endproc

	.def	_ZN80_$LT$core..core_arch..x86..__m128i$u20$as$u20$core..core_arch..x86..m128iExt$GT$8as_m128i17h2111f3052147d03aE;
	.scl	3;
	.type	32;
	.endef
	.section	.text,"xr",one_only,_ZN80_$LT$core..core_arch..x86..__m128i$u20$as$u20$core..core_arch..x86..m128iExt$GT$8as_m128i17h2111f3052147d03aE
	.p2align	4, 0x90
_ZN80_$LT$core..core_arch..x86..__m128i$u20$as$u20$core..core_arch..x86..m128iExt$GT$8as_m128i17h2111f3052147d03aE:
	movq	%rcx, %rax
	movdqa	(%rdx), %xmm0
	movdqa	%xmm0, (%rcx)
	retq

	.def	_ZN83_$LT$hashbrown..set..HashSet$LT$T$C$S$C$A$GT$$u20$as$u20$core..default..Default$GT$7default17h3708fed1c59a8a75E;
	.scl	3;
	.type	32;
	.endef
	.section	.text,"xr",one_only,_ZN83_$LT$hashbrown..set..HashSet$LT$T$C$S$C$A$GT$$u20$as$u20$core..default..Default$GT$7default17h3708fed1c59a8a75E
	.p2align	4, 0x90
_ZN83_$LT$hashbrown..set..HashSet$LT$T$C$S$C$A$GT$$u20$as$u20$core..default..Default$GT$7default17h3708fed1c59a8a75E:
.seh_proc _ZN83_$LT$hashbrown..set..HashSet$LT$T$C$S$C$A$GT$$u20$as$u20$core..default..Default$GT$7default17h3708fed1c59a8a75E
	subq	$104, %rsp
	.seh_stackalloc 104
	.seh_endprologue
	movq	%rcx, 40(%rsp)
	movq	%rcx, 48(%rsp)
	leaq	56(%rsp), %rcx
	callq	_ZN87_$LT$hashbrown..map..HashMap$LT$K$C$V$C$S$C$A$GT$$u20$as$u20$core..default..Default$GT$7default17h1253fe5ae62cda79E
	movq	40(%rsp), %rcx
	leaq	56(%rsp), %rdx
	movl	$48, %r8d
	callq	memcpy
	movq	48(%rsp), %rax
	addq	$104, %rsp
	retq
	.seh_endproc

	.def	_ZN83_$LT$std..collections..hash..map..RandomState$u20$as$u20$core..default..Default$GT$7default17h245564d4eff4521dE;
	.scl	3;
	.type	32;
	.endef
	.section	.text,"xr",one_only,_ZN83_$LT$std..collections..hash..map..RandomState$u20$as$u20$core..default..Default$GT$7default17h245564d4eff4521dE
	.p2align	4, 0x90
_ZN83_$LT$std..collections..hash..map..RandomState$u20$as$u20$core..default..Default$GT$7default17h245564d4eff4521dE:
.seh_proc _ZN83_$LT$std..collections..hash..map..RandomState$u20$as$u20$core..default..Default$GT$7default17h245564d4eff4521dE
	subq	$56, %rsp
	.seh_stackalloc 56
	.seh_endprologue
	callq	_ZN3std11collections4hash3map11RandomState3new17h0fa7f71b41c6d95fE
	movq	%rax, 40(%rsp)
	movq	%rdx, 48(%rsp)
	movq	48(%rsp), %rdx
	movq	40(%rsp), %rax
	addq	$56, %rsp
	retq
	.seh_endproc

	.def	_ZN84_$LT$core..option..Option$LT$T$GT$$u20$as$u20$core..ops..try_trait..FromResidual$GT$13from_residual17h7706c3896697cb5eE;
	.scl	3;
	.type	32;
	.endef
	.section	.text,"xr",one_only,_ZN84_$LT$core..option..Option$LT$T$GT$$u20$as$u20$core..ops..try_trait..FromResidual$GT$13from_residual17h7706c3896697cb5eE
	.p2align	4, 0x90
_ZN84_$LT$core..option..Option$LT$T$GT$$u20$as$u20$core..ops..try_trait..FromResidual$GT$13from_residual17h7706c3896697cb5eE:
	movq	%rcx, %rax
	movq	$0, 8(%rcx)
	retq

	.def	_ZN87_$LT$hashbrown..map..HashMap$LT$K$C$V$C$S$C$A$GT$$u20$as$u20$core..default..Default$GT$7default17h1253fe5ae62cda79E;
	.scl	3;
	.type	32;
	.endef
	.section	.text,"xr",one_only,_ZN87_$LT$hashbrown..map..HashMap$LT$K$C$V$C$S$C$A$GT$$u20$as$u20$core..default..Default$GT$7default17h1253fe5ae62cda79E
	.p2align	4, 0x90
_ZN87_$LT$hashbrown..map..HashMap$LT$K$C$V$C$S$C$A$GT$$u20$as$u20$core..default..Default$GT$7default17h1253fe5ae62cda79E:
.Lfunc_begin16:
.seh_proc _ZN87_$LT$hashbrown..map..HashMap$LT$K$C$V$C$S$C$A$GT$$u20$as$u20$core..default..Default$GT$7default17h1253fe5ae62cda79E
	.seh_handler __CxxFrameHandler3, @unwind, @except
	pushq	%rbp
	.seh_pushreg %rbp
	subq	$80, %rsp
	.seh_stackalloc 80
	leaq	80(%rsp), %rbp
	.seh_setframe %rbp, 80
	.seh_endprologue
	movq	$-2, -8(%rbp)
	movq	%rcx, -48(%rbp)
	movq	%rcx, -40(%rbp)
	movb	$1, -9(%rbp)
	callq	_ZN83_$LT$std..collections..hash..map..RandomState$u20$as$u20$core..default..Default$GT$7default17h245564d4eff4521dE
	movq	%rax, -32(%rbp)
	movq	%rdx, -24(%rbp)
.Ltmp66:
	callq	_ZN63_$LT$alloc..alloc..Global$u20$as$u20$core..default..Default$GT$7default17h699d0f7b426056daE
.Ltmp67:
	jmp	.LBB189_2
.LBB189_2:
	movq	-24(%rbp), %r8
	movq	-32(%rbp), %rdx
	movq	-48(%rbp), %rcx
	movb	$0, -9(%rbp)
.Ltmp68:
	callq	_ZN9hashbrown3map28HashMap$LT$K$C$V$C$S$C$A$GT$14with_hasher_in17hd39752886bfcf88fE
.Ltmp69:
	jmp	.LBB189_3
.LBB189_3:
	movq	-40(%rbp), %rax
	addq	$80, %rsp
	popq	%rbp
	retq
	.seh_handlerdata
	.long	($cppxdata$_ZN87_$LT$hashbrown..map..HashMap$LT$K$C$V$C$S$C$A$GT$$u20$as$u20$core..default..Default$GT$7default17h1253fe5ae62cda79E)@IMGREL
	.section	.text,"xr",one_only,_ZN87_$LT$hashbrown..map..HashMap$LT$K$C$V$C$S$C$A$GT$$u20$as$u20$core..default..Default$GT$7default17h1253fe5ae62cda79E
	.seh_endproc
	.def	"?dtor$1@?0?_ZN87_$LT$hashbrown..map..HashMap$LT$K$C$V$C$S$C$A$GT$$u20$as$u20$core..default..Default$GT$7default17h1253fe5ae62cda79E@4HA";
	.scl	3;
	.type	32;
	.endef
	.p2align	4, 0x90
"?dtor$1@?0?_ZN87_$LT$hashbrown..map..HashMap$LT$K$C$V$C$S$C$A$GT$$u20$as$u20$core..default..Default$GT$7default17h1253fe5ae62cda79E@4HA":
.seh_proc "?dtor$1@?0?_ZN87_$LT$hashbrown..map..HashMap$LT$K$C$V$C$S$C$A$GT$$u20$as$u20$core..default..Default$GT$7default17h1253fe5ae62cda79E@4HA"
.LBB189_1:
	movq	%rdx, 16(%rsp)
	pushq	%rbp
	.seh_pushreg %rbp
	subq	$32, %rsp
	.seh_stackalloc 32
	leaq	80(%rdx), %rbp
	.seh_endprologue
	testb	$1, -9(%rbp)
	jne	.LBB189_5
	jmp	.LBB189_4
.LBB189_4:
	addq	$32, %rsp
	popq	%rbp
	retq
.LBB189_5:
	jmp	.LBB189_4
.Lfunc_end16:
	.seh_handlerdata
	.section	.text,"xr",one_only,_ZN87_$LT$hashbrown..map..HashMap$LT$K$C$V$C$S$C$A$GT$$u20$as$u20$core..default..Default$GT$7default17h1253fe5ae62cda79E
	.seh_endproc
	.section	.xdata,"dr",associative,_ZN87_$LT$hashbrown..map..HashMap$LT$K$C$V$C$S$C$A$GT$$u20$as$u20$core..default..Default$GT$7default17h1253fe5ae62cda79E
	.p2align	2
$cppxdata$_ZN87_$LT$hashbrown..map..HashMap$LT$K$C$V$C$S$C$A$GT$$u20$as$u20$core..default..Default$GT$7default17h1253fe5ae62cda79E:
	.long	429065506
	.long	1
	.long	($stateUnwindMap$_ZN87_$LT$hashbrown..map..HashMap$LT$K$C$V$C$S$C$A$GT$$u20$as$u20$core..default..Default$GT$7default17h1253fe5ae62cda79E)@IMGREL
	.long	0
	.long	0
	.long	3
	.long	($ip2state$_ZN87_$LT$hashbrown..map..HashMap$LT$K$C$V$C$S$C$A$GT$$u20$as$u20$core..default..Default$GT$7default17h1253fe5ae62cda79E)@IMGREL
	.long	72
	.long	0
	.long	1
$stateUnwindMap$_ZN87_$LT$hashbrown..map..HashMap$LT$K$C$V$C$S$C$A$GT$$u20$as$u20$core..default..Default$GT$7default17h1253fe5ae62cda79E:
	.long	-1
	.long	"?dtor$1@?0?_ZN87_$LT$hashbrown..map..HashMap$LT$K$C$V$C$S$C$A$GT$$u20$as$u20$core..default..Default$GT$7default17h1253fe5ae62cda79E@4HA"@IMGREL
$ip2state$_ZN87_$LT$hashbrown..map..HashMap$LT$K$C$V$C$S$C$A$GT$$u20$as$u20$core..default..Default$GT$7default17h1253fe5ae62cda79E:
	.long	.Lfunc_begin16@IMGREL
	.long	-1
	.long	.Ltmp66@IMGREL+1
	.long	0
	.long	.Ltmp69@IMGREL+1
	.long	-1
	.section	.text,"xr",one_only,_ZN87_$LT$hashbrown..map..HashMap$LT$K$C$V$C$S$C$A$GT$$u20$as$u20$core..default..Default$GT$7default17h1253fe5ae62cda79E

	.def	_ZN91_$LT$hashbrown..raw..RawIter$LT$T$GT$$u20$as$u20$core..iter..traits..iterator..Iterator$GT$4next17had67ce87efd5d0bfE;
	.scl	3;
	.type	32;
	.endef
	.section	.text,"xr",one_only,_ZN91_$LT$hashbrown..raw..RawIter$LT$T$GT$$u20$as$u20$core..iter..traits..iterator..Iterator$GT$4next17had67ce87efd5d0bfE
	.p2align	4, 0x90
_ZN91_$LT$hashbrown..raw..RawIter$LT$T$GT$$u20$as$u20$core..iter..traits..iterator..Iterator$GT$4next17had67ce87efd5d0bfE:
.seh_proc _ZN91_$LT$hashbrown..raw..RawIter$LT$T$GT$$u20$as$u20$core..iter..traits..iterator..Iterator$GT$4next17had67ce87efd5d0bfE
	subq	$56, %rsp
	.seh_stackalloc 56
	.seh_endprologue
	movq	%rcx, 32(%rsp)
	callq	_ZN96_$LT$hashbrown..raw..RawIterRange$LT$T$GT$$u20$as$u20$core..iter..traits..iterator..Iterator$GT$4next17h0296a453f81a812bE
	movq	%rax, 48(%rsp)
	movl	$1, %eax
	xorl	%ecx, %ecx
	cmpq	$0, 48(%rsp)
	cmoveq	%rcx, %rax
	cmpq	$1, %rax
	jne	.LBB190_3
	movq	32(%rsp), %rcx
	movq	48(%rsp), %rax
	movq	32(%rcx), %rdx
	subq	$1, %rdx
	movq	%rdx, 32(%rcx)
	movq	%rax, 40(%rsp)
	jmp	.LBB190_4
.LBB190_3:
	movq	$0, 40(%rsp)
.LBB190_4:
	movq	40(%rsp), %rax
	addq	$56, %rsp
	retq
	.seh_endproc

	.def	_ZN92_$LT$std..collections..hash..set..HashSet$LT$T$C$S$GT$$u20$as$u20$core..default..Default$GT$7default17h23e16a89322b89efE;
	.scl	3;
	.type	32;
	.endef
	.section	.text,"xr",one_only,_ZN92_$LT$std..collections..hash..set..HashSet$LT$T$C$S$GT$$u20$as$u20$core..default..Default$GT$7default17h23e16a89322b89efE
	.p2align	4, 0x90
_ZN92_$LT$std..collections..hash..set..HashSet$LT$T$C$S$GT$$u20$as$u20$core..default..Default$GT$7default17h23e16a89322b89efE:
.seh_proc _ZN92_$LT$std..collections..hash..set..HashSet$LT$T$C$S$GT$$u20$as$u20$core..default..Default$GT$7default17h23e16a89322b89efE
	subq	$104, %rsp
	.seh_stackalloc 104
	.seh_endprologue
	movq	%rcx, 40(%rsp)
	movq	%rcx, 48(%rsp)
	leaq	56(%rsp), %rcx
	callq	_ZN83_$LT$hashbrown..set..HashSet$LT$T$C$S$C$A$GT$$u20$as$u20$core..default..Default$GT$7default17h3708fed1c59a8a75E
	movq	40(%rsp), %rcx
	leaq	56(%rsp), %rdx
	movl	$48, %r8d
	callq	memcpy
	movq	48(%rsp), %rax
	addq	$104, %rsp
	retq
	.seh_endproc

	.def	_ZN95_$LT$core..ptr..unique..Unique$LT$T$GT$$u20$as$u20$core..convert..From$LT$$RF$mut$u20$T$GT$$GT$4from17h39e07a13f47d31caE;
	.scl	3;
	.type	32;
	.endef
	.section	.text,"xr",one_only,_ZN95_$LT$core..ptr..unique..Unique$LT$T$GT$$u20$as$u20$core..convert..From$LT$$RF$mut$u20$T$GT$$GT$4from17h39e07a13f47d31caE
	.p2align	4, 0x90
_ZN95_$LT$core..ptr..unique..Unique$LT$T$GT$$u20$as$u20$core..convert..From$LT$$RF$mut$u20$T$GT$$GT$4from17h39e07a13f47d31caE:
.seh_proc _ZN95_$LT$core..ptr..unique..Unique$LT$T$GT$$u20$as$u20$core..convert..From$LT$$RF$mut$u20$T$GT$$GT$4from17h39e07a13f47d31caE
	subq	$72, %rsp
	.seh_stackalloc 72
	.seh_endprologue
	callq	_ZN98_$LT$core..ptr..non_null..NonNull$LT$T$GT$$u20$as$u20$core..convert..From$LT$$RF$mut$u20$T$GT$$GT$4from17h26deff8e615d4aeaE
	movq	%rax, 56(%rsp)
	movq	%rdx, 64(%rsp)
	movq	64(%rsp), %rdx
	movq	56(%rsp), %rcx
	callq	_ZN119_$LT$core..ptr..unique..Unique$LT$T$GT$$u20$as$u20$core..convert..From$LT$core..ptr..non_null..NonNull$LT$T$GT$$GT$$GT$4from17h4041fb19e61380f7E
	movq	%rax, 40(%rsp)
	movq	%rdx, 48(%rsp)
	movq	48(%rsp), %rdx
	movq	40(%rsp), %rax
	addq	$72, %rsp
	retq
	.seh_endproc

	.def	_ZN96_$LT$hashbrown..raw..RawIterRange$LT$T$GT$$u20$as$u20$core..iter..traits..iterator..Iterator$GT$4next17h0296a453f81a812bE;
	.scl	3;
	.type	32;
	.endef
	.section	.text,"xr",one_only,_ZN96_$LT$hashbrown..raw..RawIterRange$LT$T$GT$$u20$as$u20$core..iter..traits..iterator..Iterator$GT$4next17h0296a453f81a812bE
	.p2align	4, 0x90
_ZN96_$LT$hashbrown..raw..RawIterRange$LT$T$GT$$u20$as$u20$core..iter..traits..iterator..Iterator$GT$4next17h0296a453f81a812bE:
.seh_proc _ZN96_$LT$hashbrown..raw..RawIterRange$LT$T$GT$$u20$as$u20$core..iter..traits..iterator..Iterator$GT$4next17h0296a453f81a812bE
	subq	$136, %rsp
	.seh_stackalloc 136
	.seh_endprologue
	movq	%rcx, 80(%rsp)
.LBB193_1:
	movq	80(%rsp), %rax
	movw	24(%rax), %cx
	callq	_ZN9hashbrown3raw7bitmask7BitMask14lowest_set_bit17hc160e4f72db9a642E
	movq	%rdx, 104(%rsp)
	movq	%rax, 96(%rsp)
	cmpq	$1, 96(%rsp)
	jne	.LBB193_4
	movq	80(%rsp), %rax
	movq	104(%rsp), %rcx
	movq	%rcx, 64(%rsp)
	movw	24(%rax), %cx
	callq	_ZN9hashbrown3raw7bitmask7BitMask17remove_lowest_bit17heffab4f4e00c0f80E
	movw	%ax, 78(%rsp)
	jmp	.LBB193_12
.LBB193_4:
	movq	80(%rsp), %rcx
	movq	8(%rcx), %rax
	cmpq	16(%rcx), %rax
	jae	.LBB193_6
	movq	80(%rsp), %rax
	movq	8(%rax), %rdx
	leaq	112(%rsp), %rcx
	callq	_ZN9hashbrown3raw4sse25Group12load_aligned17h4c2c9c3d1d5ece15E
	jmp	.LBB193_8
.LBB193_6:
	movq	$0, 88(%rsp)
.LBB193_7:
	movq	88(%rsp), %rax
	addq	$136, %rsp
	retq
.LBB193_8:
	leaq	112(%rsp), %rcx
	callq	_ZN9hashbrown3raw4sse25Group10match_full17h8193a406fdeb650aE
	movw	%ax, 62(%rsp)
	movq	80(%rsp), %rcx
	movw	62(%rsp), %ax
	movw	%ax, 24(%rcx)
	movl	$16, %edx
	callq	_ZN9hashbrown3raw15Bucket$LT$T$GT$6next_n17h9454d0cfb32ed835E
	movq	%rax, 48(%rsp)
	movq	80(%rsp), %rax
	movq	48(%rsp), %rcx
	movq	%rcx, (%rax)
	movq	8(%rax), %rax
	addq	$16, %rax
	movq	%rax, 128(%rsp)
	movq	128(%rsp), %rax
	movq	%rax, 40(%rsp)
	movq	80(%rsp), %rax
	movq	40(%rsp), %rcx
	movq	%rcx, 8(%rax)
	jmp	.LBB193_1
.LBB193_12:
	movq	64(%rsp), %rdx
	movq	80(%rsp), %rcx
	movw	78(%rsp), %ax
	movw	%ax, 24(%rcx)
	callq	_ZN9hashbrown3raw15Bucket$LT$T$GT$6next_n17h9454d0cfb32ed835E
	movq	%rax, 32(%rsp)
	movq	32(%rsp), %rax
	movq	%rax, 88(%rsp)
	jmp	.LBB193_7
	.seh_endproc

	.def	_ZN98_$LT$core..ptr..non_null..NonNull$LT$T$GT$$u20$as$u20$core..convert..From$LT$$RF$mut$u20$T$GT$$GT$4from17h26deff8e615d4aeaE;
	.scl	3;
	.type	32;
	.endef
	.section	.text,"xr",one_only,_ZN98_$LT$core..ptr..non_null..NonNull$LT$T$GT$$u20$as$u20$core..convert..From$LT$$RF$mut$u20$T$GT$$GT$4from17h26deff8e615d4aeaE
	.p2align	4, 0x90
_ZN98_$LT$core..ptr..non_null..NonNull$LT$T$GT$$u20$as$u20$core..convert..From$LT$$RF$mut$u20$T$GT$$GT$4from17h26deff8e615d4aeaE:
.seh_proc _ZN98_$LT$core..ptr..non_null..NonNull$LT$T$GT$$u20$as$u20$core..convert..From$LT$$RF$mut$u20$T$GT$$GT$4from17h26deff8e615d4aeaE
	subq	$16, %rsp
	.seh_stackalloc 16
	.seh_endprologue
	movq	%rcx, (%rsp)
	movq	%rdx, 8(%rsp)
	movq	(%rsp), %rax
	movq	8(%rsp), %rdx
	addq	$16, %rsp
	retq
	.seh_endproc

	.def	_ZN9hashbrown3map28HashMap$LT$K$C$V$C$S$C$A$GT$14with_hasher_in17hd39752886bfcf88fE;
	.scl	3;
	.type	32;
	.endef
	.section	.text,"xr",one_only,_ZN9hashbrown3map28HashMap$LT$K$C$V$C$S$C$A$GT$14with_hasher_in17hd39752886bfcf88fE
	.p2align	4, 0x90
_ZN9hashbrown3map28HashMap$LT$K$C$V$C$S$C$A$GT$14with_hasher_in17hd39752886bfcf88fE:
.Lfunc_begin17:
.seh_proc _ZN9hashbrown3map28HashMap$LT$K$C$V$C$S$C$A$GT$14with_hasher_in17hd39752886bfcf88fE
	.seh_handler __CxxFrameHandler3, @unwind, @except
	pushq	%rbp
	.seh_pushreg %rbp
	subq	$112, %rsp
	.seh_stackalloc 112
	leaq	112(%rsp), %rbp
	.seh_setframe %rbp, 112
	.seh_endprologue
	movq	$-2, -8(%rbp)
	movq	%r8, -72(%rbp)
	movq	%rdx, -64(%rbp)
	movq	%rcx, -56(%rbp)
	movq	%rcx, -48(%rbp)
.Ltmp70:
	leaq	-40(%rbp), %rcx
	callq	_ZN9hashbrown3raw21RawTable$LT$T$C$A$GT$6new_in17h10614f68f56b1fa5E
.Ltmp71:
	jmp	.LBB195_2
.LBB195_2:
	movq	-48(%rbp), %rax
	movq	-56(%rbp), %rcx
	movq	-72(%rbp), %rdx
	movq	-64(%rbp), %r8
	movq	%r8, (%rcx)
	movq	%rdx, 8(%rcx)
	movq	-40(%rbp), %rdx
	movq	%rdx, 16(%rcx)
	movq	-32(%rbp), %rdx
	movq	%rdx, 24(%rcx)
	movq	-24(%rbp), %rdx
	movq	%rdx, 32(%rcx)
	movq	-16(%rbp), %rdx
	movq	%rdx, 40(%rcx)
	addq	$112, %rsp
	popq	%rbp
	retq
	.seh_handlerdata
	.long	($cppxdata$_ZN9hashbrown3map28HashMap$LT$K$C$V$C$S$C$A$GT$14with_hasher_in17hd39752886bfcf88fE)@IMGREL
	.section	.text,"xr",one_only,_ZN9hashbrown3map28HashMap$LT$K$C$V$C$S$C$A$GT$14with_hasher_in17hd39752886bfcf88fE
	.seh_endproc
	.def	"?dtor$1@?0?_ZN9hashbrown3map28HashMap$LT$K$C$V$C$S$C$A$GT$14with_hasher_in17hd39752886bfcf88fE@4HA";
	.scl	3;
	.type	32;
	.endef
	.p2align	4, 0x90
"?dtor$1@?0?_ZN9hashbrown3map28HashMap$LT$K$C$V$C$S$C$A$GT$14with_hasher_in17hd39752886bfcf88fE@4HA":
.seh_proc "?dtor$1@?0?_ZN9hashbrown3map28HashMap$LT$K$C$V$C$S$C$A$GT$14with_hasher_in17hd39752886bfcf88fE@4HA"
.LBB195_1:
	movq	%rdx, 16(%rsp)
	pushq	%rbp
	.seh_pushreg %rbp
	subq	$32, %rsp
	.seh_stackalloc 32
	leaq	112(%rdx), %rbp
	.seh_endprologue
	addq	$32, %rsp
	popq	%rbp
	retq
.Lfunc_end17:
	.seh_handlerdata
	.section	.text,"xr",one_only,_ZN9hashbrown3map28HashMap$LT$K$C$V$C$S$C$A$GT$14with_hasher_in17hd39752886bfcf88fE
	.seh_endproc
	.section	.xdata,"dr",associative,_ZN9hashbrown3map28HashMap$LT$K$C$V$C$S$C$A$GT$14with_hasher_in17hd39752886bfcf88fE
	.p2align	2
$cppxdata$_ZN9hashbrown3map28HashMap$LT$K$C$V$C$S$C$A$GT$14with_hasher_in17hd39752886bfcf88fE:
	.long	429065506
	.long	1
	.long	($stateUnwindMap$_ZN9hashbrown3map28HashMap$LT$K$C$V$C$S$C$A$GT$14with_hasher_in17hd39752886bfcf88fE)@IMGREL
	.long	0
	.long	0
	.long	3
	.long	($ip2state$_ZN9hashbrown3map28HashMap$LT$K$C$V$C$S$C$A$GT$14with_hasher_in17hd39752886bfcf88fE)@IMGREL
	.long	104
	.long	0
	.long	1
$stateUnwindMap$_ZN9hashbrown3map28HashMap$LT$K$C$V$C$S$C$A$GT$14with_hasher_in17hd39752886bfcf88fE:
	.long	-1
	.long	"?dtor$1@?0?_ZN9hashbrown3map28HashMap$LT$K$C$V$C$S$C$A$GT$14with_hasher_in17hd39752886bfcf88fE@4HA"@IMGREL
$ip2state$_ZN9hashbrown3map28HashMap$LT$K$C$V$C$S$C$A$GT$14with_hasher_in17hd39752886bfcf88fE:
	.long	.Lfunc_begin17@IMGREL
	.long	-1
	.long	.Ltmp70@IMGREL+1
	.long	0
	.long	.Ltmp71@IMGREL+1
	.long	-1
	.section	.text,"xr",one_only,_ZN9hashbrown3map28HashMap$LT$K$C$V$C$S$C$A$GT$14with_hasher_in17hd39752886bfcf88fE

	.def	_ZN9hashbrown3raw11TableLayout20calculate_layout_for17h65feb5f26314f64aE;
	.scl	3;
	.type	32;
	.endef
	.section	.text,"xr",one_only,_ZN9hashbrown3raw11TableLayout20calculate_layout_for17h65feb5f26314f64aE
	.p2align	4, 0x90
_ZN9hashbrown3raw11TableLayout20calculate_layout_for17h65feb5f26314f64aE:
.seh_proc _ZN9hashbrown3raw11TableLayout20calculate_layout_for17h65feb5f26314f64aE
	subq	$216, %rsp
	.seh_stackalloc 216
	.seh_endprologue
	movq	%r9, 96(%rsp)
	movq	%r8, 88(%rsp)
	movq	%rdx, %rax
	movq	96(%rsp), %rdx
	movq	%rax, 104(%rsp)
	movq	%rcx, %rax
	movq	104(%rsp), %rcx
	movq	%rax, 112(%rsp)
	movq	%rax, 120(%rsp)
	callq	_ZN4core3num23_$LT$impl$u20$usize$GT$11checked_mul17h26c089d383fbc173E
	movq	%rax, 128(%rsp)
	movq	%rdx, 136(%rsp)
	movq	136(%rsp), %rdx
	movq	128(%rsp), %rcx
	callq	_ZN75_$LT$core..option..Option$LT$T$GT$$u20$as$u20$core..ops..try_trait..Try$GT$6branch17h1cde9292dd7f92a0E
	movq	%rdx, 168(%rsp)
	movq	%rax, 160(%rsp)
	movq	160(%rsp), %rax
	testq	%rax, %rax
	je	.LBB196_4
	jmp	.LBB196_23
.LBB196_23:
	jmp	.LBB196_5
	ud2
.LBB196_4:
	movq	88(%rsp), %rdx
	movq	168(%rsp), %rcx
	subq	$1, %rdx
	callq	_ZN4core3num23_$LT$impl$u20$usize$GT$11checked_add17h1f8af730e989889fE
	movq	%rax, 72(%rsp)
	movq	%rdx, 80(%rsp)
	jmp	.LBB196_8
.LBB196_5:
	movq	112(%rsp), %rcx
	callq	_ZN84_$LT$core..option..Option$LT$T$GT$$u20$as$u20$core..ops..try_trait..FromResidual$GT$13from_residual17h7706c3896697cb5eE
	jmp	.LBB196_7
.LBB196_7:
	jmp	.LBB196_14
.LBB196_8:
	movq	80(%rsp), %rdx
	movq	72(%rsp), %rcx
	callq	_ZN75_$LT$core..option..Option$LT$T$GT$$u20$as$u20$core..ops..try_trait..Try$GT$6branch17h1cde9292dd7f92a0E
	movq	%rdx, 152(%rsp)
	movq	%rax, 144(%rsp)
	movq	144(%rsp), %rax
	testq	%rax, %rax
	je	.LBB196_11
	jmp	.LBB196_24
.LBB196_24:
	jmp	.LBB196_12
	ud2
.LBB196_11:
	movq	96(%rsp), %rdx
	movq	88(%rsp), %rax
	movq	152(%rsp), %rcx
	subq	$1, %rax
	xorq	$-1, %rax
	andq	%rax, %rcx
	movq	%rcx, 48(%rsp)
	addq	$16, %rdx
	callq	_ZN4core3num23_$LT$impl$u20$usize$GT$11checked_add17h1f8af730e989889fE
	movq	%rax, 56(%rsp)
	movq	%rdx, 64(%rsp)
	jmp	.LBB196_15
.LBB196_12:
	movq	112(%rsp), %rcx
	callq	_ZN84_$LT$core..option..Option$LT$T$GT$$u20$as$u20$core..ops..try_trait..FromResidual$GT$13from_residual17h7706c3896697cb5eE
	jmp	.LBB196_7
.LBB196_14:
	jmp	.LBB196_21
.LBB196_15:
	movq	64(%rsp), %rdx
	movq	56(%rsp), %rcx
	callq	_ZN75_$LT$core..option..Option$LT$T$GT$$u20$as$u20$core..ops..try_trait..Try$GT$6branch17h1cde9292dd7f92a0E
	movq	%rdx, 184(%rsp)
	movq	%rax, 176(%rsp)
	movq	176(%rsp), %rax
	testq	%rax, %rax
	je	.LBB196_18
	jmp	.LBB196_25
.LBB196_25:
	jmp	.LBB196_19
	ud2
.LBB196_18:
	movq	88(%rsp), %rdx
	movq	184(%rsp), %rcx
	callq	_ZN4core5alloc6layout6Layout25from_size_align_unchecked17h384c034f52b7ac82E
	movq	%rax, 32(%rsp)
	movq	%rdx, 40(%rsp)
	jmp	.LBB196_22
.LBB196_19:
	movq	112(%rsp), %rcx
	callq	_ZN84_$LT$core..option..Option$LT$T$GT$$u20$as$u20$core..ops..try_trait..FromResidual$GT$13from_residual17h7706c3896697cb5eE
	jmp	.LBB196_14
.LBB196_21:
	movq	120(%rsp), %rax
	addq	$216, %rsp
	retq
.LBB196_22:
	movq	112(%rsp), %rax
	movq	48(%rsp), %rcx
	movq	40(%rsp), %rdx
	movq	32(%rsp), %r8
	movq	%r8, 192(%rsp)
	movq	%rdx, 200(%rsp)
	movq	%rcx, 208(%rsp)
	movq	192(%rsp), %rcx
	movq	%rcx, (%rax)
	movq	200(%rsp), %rcx
	movq	%rcx, 8(%rax)
	movq	208(%rsp), %rcx
	movq	%rcx, 16(%rax)
	jmp	.LBB196_21
	.seh_endproc

	.def	_ZN9hashbrown3raw11TableLayout3new17h1db9f28c056ba9f7E;
	.scl	3;
	.type	32;
	.endef
	.section	.text,"xr",one_only,_ZN9hashbrown3raw11TableLayout3new17h1db9f28c056ba9f7E
	.p2align	4, 0x90
_ZN9hashbrown3raw11TableLayout3new17h1db9f28c056ba9f7E:
.seh_proc _ZN9hashbrown3raw11TableLayout3new17h1db9f28c056ba9f7E
	subq	$88, %rsp
	.seh_stackalloc 88
	.seh_endprologue
	callq	_ZN4core5alloc6layout6Layout3new17h7e768b8e4fdf9497E
	movq	%rdx, 80(%rsp)
	movq	%rax, 72(%rsp)
	leaq	72(%rsp), %rcx
	callq	_ZN4core5alloc6layout6Layout4size17h1b5ace7fc5cb046eE
	movq	%rax, 48(%rsp)
	leaq	72(%rsp), %rcx
	callq	_ZN4core5alloc6layout6Layout5align17h988ff4f8fb349d06E
	movq	%rax, 40(%rsp)
	movq	40(%rsp), %rcx
	movl	$16, %edx
	callq	_ZN4core3cmp3Ord3max17h21f17ac6ae1f4ee4E
	movq	%rax, 32(%rsp)
	movq	32(%rsp), %rax
	movq	48(%rsp), %rcx
	movq	%rcx, 56(%rsp)
	movq	%rax, 64(%rsp)
	movq	56(%rsp), %rax
	movq	64(%rsp), %rdx
	addq	$88, %rsp
	retq
	.seh_endproc

	.def	_ZN9hashbrown3raw15Bucket$LT$T$GT$15from_base_index17he3c4ca798ae3a957E;
	.scl	3;
	.type	32;
	.endef
	.section	.text,"xr",one_only,_ZN9hashbrown3raw15Bucket$LT$T$GT$15from_base_index17he3c4ca798ae3a957E
	.p2align	4, 0x90
_ZN9hashbrown3raw15Bucket$LT$T$GT$15from_base_index17he3c4ca798ae3a957E:
.seh_proc _ZN9hashbrown3raw15Bucket$LT$T$GT$15from_base_index17he3c4ca798ae3a957E
	subq	$88, %rsp
	.seh_stackalloc 88
	.seh_endprologue
	movq	%rdx, 56(%rsp)
	movq	%rcx, 64(%rsp)
	movl	$4, %eax
	cmpq	$0, %rax
	jne	.LBB198_3
	movq	56(%rsp), %rax
	addq	$1, %rax
	movq	%rax, 80(%rsp)
	jmp	.LBB198_6
.LBB198_3:
	movq	64(%rsp), %rcx
	callq	_ZN4core3ptr8non_null16NonNull$LT$T$GT$6as_ptr17hd9e965a65284a958E
	movq	%rax, 48(%rsp)
	movq	56(%rsp), %rdx
	movq	48(%rsp), %rcx
	callq	_ZN4core3ptr7mut_ptr31_$LT$impl$u20$$BP$mut$u20$T$GT$3sub17h49a2f4833a45e54fE
	movq	%rax, 80(%rsp)
	jmp	.LBB198_6
.LBB198_6:
	movq	80(%rsp), %rcx
	callq	_ZN4core3ptr8non_null16NonNull$LT$T$GT$13new_unchecked17h51d1a902be131033E
	movq	%rax, 40(%rsp)
	movq	40(%rsp), %rax
	movq	%rax, 72(%rsp)
	movq	72(%rsp), %rax
	addq	$88, %rsp
	retq
	.seh_endproc

	.def	_ZN9hashbrown3raw15Bucket$LT$T$GT$4drop17hc59043481447cd47E;
	.scl	3;
	.type	32;
	.endef
	.section	.text,"xr",one_only,_ZN9hashbrown3raw15Bucket$LT$T$GT$4drop17hc59043481447cd47E
	.p2align	4, 0x90
_ZN9hashbrown3raw15Bucket$LT$T$GT$4drop17hc59043481447cd47E:
.seh_proc _ZN9hashbrown3raw15Bucket$LT$T$GT$4drop17hc59043481447cd47E
	subq	$40, %rsp
	.seh_stackalloc 40
	.seh_endprologue
	callq	_ZN9hashbrown3raw15Bucket$LT$T$GT$6as_ptr17h7ab9025dd0385756E
	jmp	.LBB199_2
.LBB199_2:
	addq	$40, %rsp
	retq
	.seh_endproc

	.def	_ZN9hashbrown3raw15Bucket$LT$T$GT$6as_ptr17h7ab9025dd0385756E;
	.scl	3;
	.type	32;
	.endef
	.section	.text,"xr",one_only,_ZN9hashbrown3raw15Bucket$LT$T$GT$6as_ptr17h7ab9025dd0385756E
	.p2align	4, 0x90
_ZN9hashbrown3raw15Bucket$LT$T$GT$6as_ptr17h7ab9025dd0385756E:
.seh_proc _ZN9hashbrown3raw15Bucket$LT$T$GT$6as_ptr17h7ab9025dd0385756E
	subq	$56, %rsp
	.seh_stackalloc 56
	.seh_endprologue
	movq	%rcx, 40(%rsp)
	movl	$4, %eax
	cmpq	$0, %rax
	jne	.LBB200_3
	jmp	.LBB200_7
.LBB200_3:
	movq	40(%rsp), %rax
	movq	(%rax), %rcx
	callq	_ZN4core3ptr8non_null16NonNull$LT$T$GT$6as_ptr17hd9e965a65284a958E
	movq	%rax, 32(%rsp)
	movq	32(%rsp), %rcx
	movl	$1, %edx
	callq	_ZN4core3ptr7mut_ptr31_$LT$impl$u20$$BP$mut$u20$T$GT$3sub17h49a2f4833a45e54fE
	movq	%rax, 48(%rsp)
	jmp	.LBB200_6
.LBB200_6:
	movq	48(%rsp), %rax
	addq	$56, %rsp
	retq
.LBB200_7:
	movl	$4, %eax
	movq	%rax, 48(%rsp)
	jmp	.LBB200_6
	.seh_endproc

	.def	_ZN9hashbrown3raw15Bucket$LT$T$GT$6next_n17h9454d0cfb32ed835E;
	.scl	3;
	.type	32;
	.endef
	.section	.text,"xr",one_only,_ZN9hashbrown3raw15Bucket$LT$T$GT$6next_n17h9454d0cfb32ed835E
	.p2align	4, 0x90
_ZN9hashbrown3raw15Bucket$LT$T$GT$6next_n17h9454d0cfb32ed835E:
.seh_proc _ZN9hashbrown3raw15Bucket$LT$T$GT$6next_n17h9454d0cfb32ed835E
	subq	$88, %rsp
	.seh_stackalloc 88
	.seh_endprologue
	movq	%rdx, 56(%rsp)
	movq	%rcx, 64(%rsp)
	movl	$4, %eax
	cmpq	$0, %rax
	jne	.LBB201_3
	movq	64(%rsp), %rax
	movq	(%rax), %rcx
	callq	_ZN4core3ptr8non_null16NonNull$LT$T$GT$6as_ptr17hd9e965a65284a958E
	movq	%rax, 48(%rsp)
	jmp	.LBB201_7
.LBB201_3:
	movq	64(%rsp), %rax
	movq	(%rax), %rcx
	callq	_ZN4core3ptr8non_null16NonNull$LT$T$GT$6as_ptr17hd9e965a65284a958E
	movq	%rax, 40(%rsp)
	movq	56(%rsp), %rdx
	movq	40(%rsp), %rcx
	callq	_ZN4core3ptr7mut_ptr31_$LT$impl$u20$$BP$mut$u20$T$GT$3sub17h49a2f4833a45e54fE
	movq	%rax, 80(%rsp)
	jmp	.LBB201_6
.LBB201_6:
	movq	80(%rsp), %rcx
	callq	_ZN4core3ptr8non_null16NonNull$LT$T$GT$13new_unchecked17h51d1a902be131033E
	movq	%rax, 32(%rsp)
	jmp	.LBB201_8
.LBB201_7:
	movq	56(%rsp), %rcx
	movq	48(%rsp), %rax
	addq	%rcx, %rax
	movq	%rax, 80(%rsp)
	jmp	.LBB201_6
.LBB201_8:
	movq	32(%rsp), %rax
	movq	%rax, 72(%rsp)
	movq	72(%rsp), %rax
	addq	$88, %rsp
	retq
	.seh_endproc

	.def	_ZN9hashbrown3raw21RawIterRange$LT$T$GT$3new17h936b3e5011d560c6E;
	.scl	3;
	.type	32;
	.endef
	.section	.text,"xr",one_only,_ZN9hashbrown3raw21RawIterRange$LT$T$GT$3new17h936b3e5011d560c6E
	.p2align	4, 0x90
_ZN9hashbrown3raw21RawIterRange$LT$T$GT$3new17h936b3e5011d560c6E:
.seh_proc _ZN9hashbrown3raw21RawIterRange$LT$T$GT$3new17h936b3e5011d560c6E
	subq	$136, %rsp
	.seh_stackalloc 136
	.seh_endprologue
	movq	%r8, 56(%rsp)
	movq	%rdx, 64(%rsp)
	movq	%rcx, 72(%rsp)
	movq	%rcx, 80(%rsp)
	addq	%r9, %rdx
	movq	%rdx, 120(%rsp)
	movq	120(%rsp), %rax
	movq	%rax, 88(%rsp)
	movq	64(%rsp), %rdx
	leaq	96(%rsp), %rcx
	callq	_ZN9hashbrown3raw4sse25Group12load_aligned17h4c2c9c3d1d5ece15E
	leaq	96(%rsp), %rcx
	callq	_ZN9hashbrown3raw4sse25Group10match_full17h8193a406fdeb650aE
	movw	%ax, 54(%rsp)
	movq	64(%rsp), %rax
	addq	$16, %rax
	movq	%rax, 128(%rsp)
	movq	128(%rsp), %rax
	movq	%rax, 40(%rsp)
	movq	80(%rsp), %rax
	movq	72(%rsp), %rcx
	movq	88(%rsp), %rdx
	movq	40(%rsp), %r8
	movq	56(%rsp), %r9
	movw	54(%rsp), %r10w
	movw	%r10w, 24(%rcx)
	movq	%r9, (%rcx)
	movq	%r8, 8(%rcx)
	movq	%rdx, 16(%rcx)
	addq	$136, %rsp
	retq
	.seh_endproc

	.def	_ZN9hashbrown3raw21RawTable$LT$T$C$A$GT$12free_buckets17hfdd5492e606ae622E;
	.scl	3;
	.type	32;
	.endef
	.section	.text,"xr",one_only,_ZN9hashbrown3raw21RawTable$LT$T$C$A$GT$12free_buckets17hfdd5492e606ae622E
	.p2align	4, 0x90
_ZN9hashbrown3raw21RawTable$LT$T$C$A$GT$12free_buckets17hfdd5492e606ae622E:
.seh_proc _ZN9hashbrown3raw21RawTable$LT$T$C$A$GT$12free_buckets17hfdd5492e606ae622E
	subq	$56, %rsp
	.seh_stackalloc 56
	.seh_endprologue
	movq	%rcx, 32(%rsp)
	callq	_ZN9hashbrown3raw11TableLayout3new17h1db9f28c056ba9f7E
	movq	%rax, 40(%rsp)
	movq	%rdx, 48(%rsp)
	movq	48(%rsp), %r8
	movq	40(%rsp), %rdx
	movq	32(%rsp), %rcx
	callq	_ZN9hashbrown3raw22RawTableInner$LT$A$GT$12free_buckets17h21301c5b939bb1d2E
	nop
	addq	$56, %rsp
	retq
	.seh_endproc

	.def	_ZN9hashbrown3raw21RawTable$LT$T$C$A$GT$13drop_elements17h464421a951c5504aE;
	.scl	3;
	.type	32;
	.endef
	.section	.text,"xr",one_only,_ZN9hashbrown3raw21RawTable$LT$T$C$A$GT$13drop_elements17h464421a951c5504aE
	.p2align	4, 0x90
_ZN9hashbrown3raw21RawTable$LT$T$C$A$GT$13drop_elements17h464421a951c5504aE:
.seh_proc _ZN9hashbrown3raw21RawTable$LT$T$C$A$GT$13drop_elements17h464421a951c5504aE
	subq	$200, %rsp
	.seh_stackalloc 200
	.seh_endprologue
	movq	%rcx, 48(%rsp)
	callq	_ZN4core3mem10needs_drop17h5f84a2c909d8aeb9E
	movb	%al, 62(%rsp)
	movb	62(%rsp), %al
	testb	$1, %al
	jne	.LBB204_3
	jmp	.LBB204_2
.LBB204_2:
	movb	$0, 63(%rsp)
	jmp	.LBB204_5
.LBB204_3:
	movq	48(%rsp), %rcx
	callq	_ZN9hashbrown3raw21RawTable$LT$T$C$A$GT$8is_empty17hd73f9d63edd2fd27E
	movb	%al, 47(%rsp)
	movb	47(%rsp), %al
	xorb	$-1, %al
	andb	$1, %al
	movb	%al, 63(%rsp)
.LBB204_5:
	testb	$1, 63(%rsp)
	jne	.LBB204_7
.LBB204_6:
	addq	$200, %rsp
	retq
.LBB204_7:
	movq	48(%rsp), %rdx
	leaq	104(%rsp), %rcx
	callq	_ZN9hashbrown3raw21RawTable$LT$T$C$A$GT$4iter17h968be967051d2029E
	leaq	64(%rsp), %rcx
	leaq	104(%rsp), %rdx
	callq	_ZN63_$LT$I$u20$as$u20$core..iter..traits..collect..IntoIterator$GT$9into_iter17h76c4bc7a472045d8E
	leaq	144(%rsp), %rcx
	leaq	64(%rsp), %rdx
	movl	$40, %r8d
	callq	memcpy
.LBB204_10:
	leaq	144(%rsp), %rcx
	callq	_ZN91_$LT$hashbrown..raw..RawIter$LT$T$GT$$u20$as$u20$core..iter..traits..iterator..Iterator$GT$4next17had67ce87efd5d0bfE
	movq	%rax, 184(%rsp)
	movq	184(%rsp), %rax
	testq	%rax, %rax
	setne	%al
	movzbl	%al, %eax
	je	.LBB204_13
	jmp	.LBB204_16
.LBB204_16:
	jmp	.LBB204_14
	ud2
.LBB204_13:
	jmp	.LBB204_6
.LBB204_14:
	movq	184(%rsp), %rax
	movq	%rax, 192(%rsp)
	leaq	192(%rsp), %rcx
	callq	_ZN9hashbrown3raw15Bucket$LT$T$GT$4drop17hc59043481447cd47E
	jmp	.LBB204_10
	.seh_endproc

	.def	_ZN9hashbrown3raw21RawTable$LT$T$C$A$GT$3len17h240ed9ccd9d0c59fE;
	.scl	3;
	.type	32;
	.endef
	.section	.text,"xr",one_only,_ZN9hashbrown3raw21RawTable$LT$T$C$A$GT$3len17h240ed9ccd9d0c59fE
	.p2align	4, 0x90
_ZN9hashbrown3raw21RawTable$LT$T$C$A$GT$3len17h240ed9ccd9d0c59fE:
	movq	24(%rcx), %rax
	retq

	.def	_ZN9hashbrown3raw21RawTable$LT$T$C$A$GT$4iter17h968be967051d2029E;
	.scl	3;
	.type	32;
	.endef
	.section	.text,"xr",one_only,_ZN9hashbrown3raw21RawTable$LT$T$C$A$GT$4iter17h968be967051d2029E
	.p2align	4, 0x90
_ZN9hashbrown3raw21RawTable$LT$T$C$A$GT$4iter17h968be967051d2029E:
.seh_proc _ZN9hashbrown3raw21RawTable$LT$T$C$A$GT$4iter17h968be967051d2029E
	subq	$120, %rsp
	.seh_stackalloc 120
	.seh_endprologue
	movq	%rdx, 56(%rsp)
	movq	%rcx, %rax
	movq	56(%rsp), %rcx
	movq	%rax, 64(%rsp)
	movq	%rax, 72(%rsp)
	callq	_ZN9hashbrown3raw21RawTable$LT$T$C$A$GT$8data_end17h446884d1054af29dE
	movq	%rax, 80(%rsp)
	movq	80(%rsp), %rcx
	xorl	%eax, %eax
	movl	%eax, %edx
	callq	_ZN9hashbrown3raw15Bucket$LT$T$GT$15from_base_index17he3c4ca798ae3a957E
	movq	%rax, 48(%rsp)
	movq	56(%rsp), %rax
	movq	8(%rax), %rcx
	callq	_ZN4core3ptr8non_null16NonNull$LT$T$GT$6as_ptr17h3dca4ffcd4a38b8cE
	movq	%rax, 40(%rsp)
	movq	56(%rsp), %rcx
	callq	_ZN9hashbrown3raw22RawTableInner$LT$A$GT$7buckets17h760ebc037a7a7fcfE
	movq	%rax, 32(%rsp)
	movq	32(%rsp), %r9
	movq	48(%rsp), %r8
	movq	40(%rsp), %rdx
	leaq	88(%rsp), %rcx
	callq	_ZN9hashbrown3raw21RawIterRange$LT$T$GT$3new17h936b3e5011d560c6E
	movq	72(%rsp), %rax
	movq	64(%rsp), %rcx
	movq	56(%rsp), %rdx
	movq	24(%rdx), %rdx
	movq	88(%rsp), %r8
	movq	%r8, (%rcx)
	movq	96(%rsp), %r8
	movq	%r8, 8(%rcx)
	movq	104(%rsp), %r8
	movq	%r8, 16(%rcx)
	movq	112(%rsp), %r8
	movq	%r8, 24(%rcx)
	movq	%rdx, 32(%rcx)
	addq	$120, %rsp
	retq
	.seh_endproc

	.def	_ZN9hashbrown3raw21RawTable$LT$T$C$A$GT$6new_in17h10614f68f56b1fa5E;
	.scl	3;
	.type	32;
	.endef
	.section	.text,"xr",one_only,_ZN9hashbrown3raw21RawTable$LT$T$C$A$GT$6new_in17h10614f68f56b1fa5E
	.p2align	4, 0x90
_ZN9hashbrown3raw21RawTable$LT$T$C$A$GT$6new_in17h10614f68f56b1fa5E:
.seh_proc _ZN9hashbrown3raw21RawTable$LT$T$C$A$GT$6new_in17h10614f68f56b1fa5E
	subq	$88, %rsp
	.seh_stackalloc 88
	.seh_endprologue
	movq	%rcx, 40(%rsp)
	movq	%rcx, 48(%rsp)
	leaq	56(%rsp), %rcx
	callq	_ZN9hashbrown3raw22RawTableInner$LT$A$GT$6new_in17ha581127aff35637eE
	movq	48(%rsp), %rax
	movq	40(%rsp), %rcx
	movq	56(%rsp), %rdx
	movq	%rdx, (%rcx)
	movq	64(%rsp), %rdx
	movq	%rdx, 8(%rcx)
	movq	72(%rsp), %rdx
	movq	%rdx, 16(%rcx)
	movq	80(%rsp), %rdx
	movq	%rdx, 24(%rcx)
	addq	$88, %rsp
	retq
	.seh_endproc

	.def	_ZN9hashbrown3raw21RawTable$LT$T$C$A$GT$8data_end17h446884d1054af29dE;
	.scl	3;
	.type	32;
	.endef
	.section	.text,"xr",one_only,_ZN9hashbrown3raw21RawTable$LT$T$C$A$GT$8data_end17h446884d1054af29dE
	.p2align	4, 0x90
_ZN9hashbrown3raw21RawTable$LT$T$C$A$GT$8data_end17h446884d1054af29dE:
.seh_proc _ZN9hashbrown3raw21RawTable$LT$T$C$A$GT$8data_end17h446884d1054af29dE
	subq	$56, %rsp
	.seh_stackalloc 56
	.seh_endprologue
	movq	8(%rcx), %rcx
	callq	_ZN4core3ptr8non_null16NonNull$LT$T$GT$6as_ptr17h3dca4ffcd4a38b8cE
	movq	%rax, 48(%rsp)
	movq	48(%rsp), %rax
	movq	%rax, 40(%rsp)
	movq	40(%rsp), %rcx
	callq	_ZN4core3ptr8non_null16NonNull$LT$T$GT$13new_unchecked17h51d1a902be131033E
	movq	%rax, 32(%rsp)
	movq	32(%rsp), %rax
	addq	$56, %rsp
	retq
	.seh_endproc

	.def	_ZN9hashbrown3raw21RawTable$LT$T$C$A$GT$8is_empty17hd73f9d63edd2fd27E;
	.scl	3;
	.type	32;
	.endef
	.section	.text,"xr",one_only,_ZN9hashbrown3raw21RawTable$LT$T$C$A$GT$8is_empty17hd73f9d63edd2fd27E
	.p2align	4, 0x90
_ZN9hashbrown3raw21RawTable$LT$T$C$A$GT$8is_empty17hd73f9d63edd2fd27E:
.seh_proc _ZN9hashbrown3raw21RawTable$LT$T$C$A$GT$8is_empty17hd73f9d63edd2fd27E
	subq	$40, %rsp
	.seh_stackalloc 40
	.seh_endprologue
	callq	_ZN9hashbrown3raw21RawTable$LT$T$C$A$GT$3len17h240ed9ccd9d0c59fE
	movq	%rax, 32(%rsp)
	movq	32(%rsp), %rax
	cmpq	$0, %rax
	sete	%al
	andb	$1, %al
	movzbl	%al, %eax
	addq	$40, %rsp
	retq
	.seh_endproc

	.def	_ZN9hashbrown3raw22RawTableInner$LT$A$GT$12free_buckets17h21301c5b939bb1d2E;
	.scl	3;
	.type	32;
	.endef
	.section	.text,"xr",one_only,_ZN9hashbrown3raw22RawTableInner$LT$A$GT$12free_buckets17h21301c5b939bb1d2E
	.p2align	4, 0x90
_ZN9hashbrown3raw22RawTableInner$LT$A$GT$12free_buckets17h21301c5b939bb1d2E:
.seh_proc _ZN9hashbrown3raw22RawTableInner$LT$A$GT$12free_buckets17h21301c5b939bb1d2E
	subq	$200, %rsp
	.seh_stackalloc 200
	.seh_endprologue
	movq	%r8, 96(%rsp)
	movq	%rdx, 104(%rsp)
	movq	%rcx, 112(%rsp)
	callq	_ZN9hashbrown3raw22RawTableInner$LT$A$GT$7buckets17h760ebc037a7a7fcfE
	movq	%rax, 120(%rsp)
	movq	120(%rsp), %r9
	movq	96(%rsp), %r8
	movq	104(%rsp), %rdx
	leaq	152(%rsp), %rcx
	callq	_ZN9hashbrown3raw11TableLayout20calculate_layout_for17h65feb5f26314f64aE
	movq	160(%rsp), %rax
	testq	%rax, %rax
	setne	%al
	movzbl	%al, %eax
	je	.LBB210_4
	jmp	.LBB210_10
.LBB210_10:
	jmp	.LBB210_5
	ud2
.LBB210_4:
	callq	_ZN4core4hint21unreachable_unchecked17hf344b2d05e4ecfeaE
	ud2
.LBB210_5:
	movq	112(%rsp), %rax
	movq	152(%rsp), %rcx
	movq	%rcx, 176(%rsp)
	movq	160(%rsp), %rcx
	movq	%rcx, 184(%rsp)
	movq	168(%rsp), %rcx
	movq	%rcx, 192(%rsp)
	movq	176(%rsp), %rcx
	movq	%rcx, 128(%rsp)
	movq	184(%rsp), %rcx
	movq	%rcx, 136(%rsp)
	movq	192(%rsp), %rcx
	movq	%rcx, 144(%rsp)
	movq	128(%rsp), %rcx
	movq	%rcx, 56(%rsp)
	movq	136(%rsp), %rcx
	movq	%rcx, 64(%rsp)
	movq	144(%rsp), %rcx
	movq	%rcx, 72(%rsp)
	movq	%rax, %rcx
	movq	%rcx, 80(%rsp)
	movq	8(%rax), %rcx
	callq	_ZN4core3ptr8non_null16NonNull$LT$T$GT$6as_ptr17h3dca4ffcd4a38b8cE
	movq	%rax, 88(%rsp)
	movq	72(%rsp), %rdx
	movq	88(%rsp), %rcx
	callq	_ZN4core3ptr7mut_ptr31_$LT$impl$u20$$BP$mut$u20$T$GT$3sub17hbb40299a579f8abcE
	movq	%rax, 48(%rsp)
	movq	48(%rsp), %rcx
	callq	_ZN4core3ptr8non_null16NonNull$LT$T$GT$13new_unchecked17h3c2e23cb5eeb7993E
	movq	%rax, 40(%rsp)
	movq	64(%rsp), %r9
	movq	56(%rsp), %r8
	movq	40(%rsp), %rdx
	movq	80(%rsp), %rcx
	callq	_ZN63_$LT$alloc..alloc..Global$u20$as$u20$core..alloc..Allocator$GT$10deallocate17h0e0be878c9a007a6E
	nop
	addq	$200, %rsp
	retq
	.seh_endproc

	.def	_ZN9hashbrown3raw22RawTableInner$LT$A$GT$18is_empty_singleton17h69404a48bc037e6dE;
	.scl	3;
	.type	32;
	.endef
	.section	.text,"xr",one_only,_ZN9hashbrown3raw22RawTableInner$LT$A$GT$18is_empty_singleton17h69404a48bc037e6dE
	.p2align	4, 0x90
_ZN9hashbrown3raw22RawTableInner$LT$A$GT$18is_empty_singleton17h69404a48bc037e6dE:
	cmpq	$0, (%rcx)
	sete	%al
	andb	$1, %al
	movzbl	%al, %eax
	retq

	.def	_ZN9hashbrown3raw22RawTableInner$LT$A$GT$6new_in17ha581127aff35637eE;
	.scl	3;
	.type	32;
	.endef
	.section	.text,"xr",one_only,_ZN9hashbrown3raw22RawTableInner$LT$A$GT$6new_in17ha581127aff35637eE
	.p2align	4, 0x90
_ZN9hashbrown3raw22RawTableInner$LT$A$GT$6new_in17ha581127aff35637eE:
.Lfunc_begin18:
.seh_proc _ZN9hashbrown3raw22RawTableInner$LT$A$GT$6new_in17ha581127aff35637eE
	.seh_handler __CxxFrameHandler3, @unwind, @except
	pushq	%rbp
	.seh_pushreg %rbp
	subq	$80, %rsp
	.seh_stackalloc 80
	leaq	80(%rsp), %rbp
	.seh_setframe %rbp, 80
	.seh_endprologue
	movq	$-2, -8(%rbp)
	movq	%rcx, -32(%rbp)
	movq	%rcx, -24(%rbp)
.Ltmp72:
	callq	_ZN9hashbrown3raw4sse25Group12static_empty17h39c4a69104080042E
.Ltmp73:
	movq	%rax, -16(%rbp)
	jmp	.LBB212_2
.LBB212_2:
.Ltmp74:
	movq	-16(%rbp), %rcx
	callq	_ZN4core3ptr8non_null16NonNull$LT$T$GT$13new_unchecked17h3c2e23cb5eeb7993E
.Ltmp75:
	movq	%rax, -40(%rbp)
	jmp	.LBB212_3
.LBB212_3:
	movq	-24(%rbp), %rax
	movq	-32(%rbp), %rcx
	movq	-40(%rbp), %rdx
	movq	$0, (%rcx)
	movq	%rdx, 8(%rcx)
	movq	$0, 16(%rcx)
	movq	$0, 24(%rcx)
	addq	$80, %rsp
	popq	%rbp
	retq
	.seh_handlerdata
	.long	($cppxdata$_ZN9hashbrown3raw22RawTableInner$LT$A$GT$6new_in17ha581127aff35637eE)@IMGREL
	.section	.text,"xr",one_only,_ZN9hashbrown3raw22RawTableInner$LT$A$GT$6new_in17ha581127aff35637eE
	.seh_endproc
	.def	"?dtor$1@?0?_ZN9hashbrown3raw22RawTableInner$LT$A$GT$6new_in17ha581127aff35637eE@4HA";
	.scl	3;
	.type	32;
	.endef
	.p2align	4, 0x90
"?dtor$1@?0?_ZN9hashbrown3raw22RawTableInner$LT$A$GT$6new_in17ha581127aff35637eE@4HA":
.seh_proc "?dtor$1@?0?_ZN9hashbrown3raw22RawTableInner$LT$A$GT$6new_in17ha581127aff35637eE@4HA"
.LBB212_1:
	movq	%rdx, 16(%rsp)
	pushq	%rbp
	.seh_pushreg %rbp
	subq	$32, %rsp
	.seh_stackalloc 32
	leaq	80(%rdx), %rbp
	.seh_endprologue
	addq	$32, %rsp
	popq	%rbp
	retq
.Lfunc_end18:
	.seh_handlerdata
	.section	.text,"xr",one_only,_ZN9hashbrown3raw22RawTableInner$LT$A$GT$6new_in17ha581127aff35637eE
	.seh_endproc
	.section	.xdata,"dr",associative,_ZN9hashbrown3raw22RawTableInner$LT$A$GT$6new_in17ha581127aff35637eE
	.p2align	2
$cppxdata$_ZN9hashbrown3raw22RawTableInner$LT$A$GT$6new_in17ha581127aff35637eE:
	.long	429065506
	.long	1
	.long	($stateUnwindMap$_ZN9hashbrown3raw22RawTableInner$LT$A$GT$6new_in17ha581127aff35637eE)@IMGREL
	.long	0
	.long	0
	.long	3
	.long	($ip2state$_ZN9hashbrown3raw22RawTableInner$LT$A$GT$6new_in17ha581127aff35637eE)@IMGREL
	.long	72
	.long	0
	.long	1
$stateUnwindMap$_ZN9hashbrown3raw22RawTableInner$LT$A$GT$6new_in17ha581127aff35637eE:
	.long	-1
	.long	"?dtor$1@?0?_ZN9hashbrown3raw22RawTableInner$LT$A$GT$6new_in17ha581127aff35637eE@4HA"@IMGREL
$ip2state$_ZN9hashbrown3raw22RawTableInner$LT$A$GT$6new_in17ha581127aff35637eE:
	.long	.Lfunc_begin18@IMGREL
	.long	-1
	.long	.Ltmp72@IMGREL+1
	.long	0
	.long	.Ltmp75@IMGREL+1
	.long	-1
	.section	.text,"xr",one_only,_ZN9hashbrown3raw22RawTableInner$LT$A$GT$6new_in17ha581127aff35637eE

	.def	_ZN9hashbrown3raw22RawTableInner$LT$A$GT$7buckets17h760ebc037a7a7fcfE;
	.scl	3;
	.type	32;
	.endef
	.section	.text,"xr",one_only,_ZN9hashbrown3raw22RawTableInner$LT$A$GT$7buckets17h760ebc037a7a7fcfE
	.p2align	4, 0x90
_ZN9hashbrown3raw22RawTableInner$LT$A$GT$7buckets17h760ebc037a7a7fcfE:
	movq	(%rcx), %rax
	addq	$1, %rax
	retq

	.def	_ZN9hashbrown3raw4sse25Group10match_full17h8193a406fdeb650aE;
	.scl	3;
	.type	32;
	.endef
	.section	.text,"xr",one_only,_ZN9hashbrown3raw4sse25Group10match_full17h8193a406fdeb650aE
	.p2align	4, 0x90
_ZN9hashbrown3raw4sse25Group10match_full17h8193a406fdeb650aE:
.seh_proc _ZN9hashbrown3raw4sse25Group10match_full17h8193a406fdeb650aE
	subq	$72, %rsp
	.seh_stackalloc 72
	.seh_endprologue
	movdqa	(%rcx), %xmm0
	movdqa	%xmm0, 48(%rsp)
	leaq	48(%rsp), %rcx
	callq	_ZN9hashbrown3raw4sse25Group22match_empty_or_deleted17h245c2a0d4fb16333E
	movw	%ax, 46(%rsp)
	movw	46(%rsp), %cx
	callq	_ZN9hashbrown3raw7bitmask7BitMask6invert17h2b6f4f6a252c82e8E
	movw	%ax, 44(%rsp)
	movw	44(%rsp), %ax
	addq	$72, %rsp
	retq
	.seh_endproc

	.def	_ZN9hashbrown3raw4sse25Group12load_aligned17h4c2c9c3d1d5ece15E;
	.scl	3;
	.type	32;
	.endef
	.section	.text,"xr",one_only,_ZN9hashbrown3raw4sse25Group12load_aligned17h4c2c9c3d1d5ece15E
	.p2align	4, 0x90
_ZN9hashbrown3raw4sse25Group12load_aligned17h4c2c9c3d1d5ece15E:
.seh_proc _ZN9hashbrown3raw4sse25Group12load_aligned17h4c2c9c3d1d5ece15E
	subq	$104, %rsp
	.seh_stackalloc 104
	.seh_endprologue
	movq	%rdx, 48(%rsp)
	movq	%rcx, %rax
	movq	48(%rsp), %rcx
	movq	%rax, 56(%rsp)
	movq	%rax, 64(%rsp)
	callq	_ZN4core3ptr9const_ptr33_$LT$impl$u20$$BP$const$u20$T$GT$4cast17h632c41ca465ff5bcE
	movq	%rax, 72(%rsp)
	movq	72(%rsp), %rdx
	leaq	80(%rsp), %rcx
	callq	_ZN4core9core_arch3x864sse214_mm_load_si12817h2de96fa51bc59c5fE
	movdqa	80(%rsp), %xmm0
	movaps	%xmm0, 32(%rsp)
	movq	64(%rsp), %rax
	movq	56(%rsp), %rcx
	movaps	32(%rsp), %xmm0
	movdqa	%xmm0, (%rcx)
	addq	$104, %rsp
	retq
	.seh_endproc

	.def	_ZN9hashbrown3raw4sse25Group12static_empty17h39c4a69104080042E;
	.scl	3;
	.type	32;
	.endef
	.section	.text,"xr",one_only,_ZN9hashbrown3raw4sse25Group12static_empty17h39c4a69104080042E
	.p2align	4, 0x90
_ZN9hashbrown3raw4sse25Group12static_empty17h39c4a69104080042E:
	leaq	__unnamed_19(%rip), %rax
	retq

	.def	_ZN9hashbrown3raw4sse25Group22match_empty_or_deleted17h245c2a0d4fb16333E;
	.scl	3;
	.type	32;
	.endef
	.section	.text,"xr",one_only,_ZN9hashbrown3raw4sse25Group22match_empty_or_deleted17h245c2a0d4fb16333E
	.p2align	4, 0x90
_ZN9hashbrown3raw4sse25Group22match_empty_or_deleted17h245c2a0d4fb16333E:
.seh_proc _ZN9hashbrown3raw4sse25Group22match_empty_or_deleted17h245c2a0d4fb16333E
	subq	$72, %rsp
	.seh_stackalloc 72
	.seh_endprologue
	movdqa	(%rcx), %xmm0
	movdqa	%xmm0, 48(%rsp)
	leaq	48(%rsp), %rcx
	callq	_ZN4core9core_arch3x864sse217_mm_movemask_epi817hb8821ea8f6de486dE
	movl	%eax, 40(%rsp)
	movl	40(%rsp), %eax
	movw	%ax, 46(%rsp)
	movw	46(%rsp), %ax
	addq	$72, %rsp
	retq
	.seh_endproc

	.def	_ZN9hashbrown3raw7bitmask7BitMask14lowest_set_bit17hc160e4f72db9a642E;
	.scl	3;
	.type	32;
	.endef
	.section	.text,"xr",one_only,_ZN9hashbrown3raw7bitmask7BitMask14lowest_set_bit17hc160e4f72db9a642E
	.p2align	4, 0x90
_ZN9hashbrown3raw7bitmask7BitMask14lowest_set_bit17hc160e4f72db9a642E:
.seh_proc _ZN9hashbrown3raw7bitmask7BitMask14lowest_set_bit17hc160e4f72db9a642E
	subq	$72, %rsp
	.seh_stackalloc 72
	.seh_endprologue
	movw	%cx, 54(%rsp)
	cmpw	$0, %cx
	jne	.LBB218_2
	movq	$0, 56(%rsp)
	jmp	.LBB218_4
.LBB218_2:
	movw	54(%rsp), %cx
	callq	_ZN9hashbrown3raw7bitmask7BitMask22lowest_set_bit_nonzero17hca6859ecd69e27b7E
	movq	%rax, 40(%rsp)
	movq	40(%rsp), %rax
	movq	%rax, 64(%rsp)
	movq	$1, 56(%rsp)
.LBB218_4:
	movq	56(%rsp), %rax
	movq	64(%rsp), %rdx
	addq	$72, %rsp
	retq
	.seh_endproc

	.def	_ZN9hashbrown3raw7bitmask7BitMask17remove_lowest_bit17heffab4f4e00c0f80E;
	.scl	3;
	.type	32;
	.endef
	.section	.text,"xr",one_only,_ZN9hashbrown3raw7bitmask7BitMask17remove_lowest_bit17heffab4f4e00c0f80E
	.p2align	4, 0x90
_ZN9hashbrown3raw7bitmask7BitMask17remove_lowest_bit17heffab4f4e00c0f80E:
.seh_proc _ZN9hashbrown3raw7bitmask7BitMask17remove_lowest_bit17heffab4f4e00c0f80E
	pushq	%rax
	.seh_stackalloc 8
	.seh_endprologue
	movw	%cx, %ax
	subw	$1, %ax
	andw	%ax, %cx
	movw	%cx, 6(%rsp)
	movw	6(%rsp), %ax
	popq	%rcx
	retq
	.seh_endproc

	.def	_ZN9hashbrown3raw7bitmask7BitMask22lowest_set_bit_nonzero17hca6859ecd69e27b7E;
	.scl	3;
	.type	32;
	.endef
	.section	.text,"xr",one_only,_ZN9hashbrown3raw7bitmask7BitMask22lowest_set_bit_nonzero17hca6859ecd69e27b7E
	.p2align	4, 0x90
_ZN9hashbrown3raw7bitmask7BitMask22lowest_set_bit_nonzero17hca6859ecd69e27b7E:
.seh_proc _ZN9hashbrown3raw7bitmask7BitMask22lowest_set_bit_nonzero17hca6859ecd69e27b7E
	pushq	%rax
	.seh_stackalloc 8
	.seh_endprologue
	bsfw	%cx, %ax
	movw	%ax, 6(%rsp)
	movw	6(%rsp), %ax
	movw	%ax, 4(%rsp)
	movw	4(%rsp), %ax
	movzwl	%ax, %eax
	shrq	$0, %rax
	popq	%rcx
	retq
	.seh_endproc

	.def	_ZN9hashbrown3raw7bitmask7BitMask6invert17h2b6f4f6a252c82e8E;
	.scl	3;
	.type	32;
	.endef
	.section	.text,"xr",one_only,_ZN9hashbrown3raw7bitmask7BitMask6invert17h2b6f4f6a252c82e8E
	.p2align	4, 0x90
_ZN9hashbrown3raw7bitmask7BitMask6invert17h2b6f4f6a252c82e8E:
.seh_proc _ZN9hashbrown3raw7bitmask7BitMask6invert17h2b6f4f6a252c82e8E
	pushq	%rax
	.seh_stackalloc 8
	.seh_endprologue
	xorw	$-1, %cx
	movw	%cx, 6(%rsp)
	movw	6(%rsp), %ax
	popq	%rcx
	retq
	.seh_endproc

	.def	_ZN4main4main17h3c09b0dadcaa4080E;
	.scl	3;
	.type	32;
	.endef
	.section	.text,"xr",one_only,_ZN4main4main17h3c09b0dadcaa4080E
	.p2align	4, 0x90
_ZN4main4main17h3c09b0dadcaa4080E:
.Lfunc_begin19:
.seh_proc _ZN4main4main17h3c09b0dadcaa4080E
	.seh_handler __CxxFrameHandler3, @unwind, @except
	pushq	%rbp
	.seh_pushreg %rbp
	subq	$592, %rsp
	.seh_stackalloc 592
	leaq	128(%rsp), %rbp
	.seh_setframe %rbp, 128
	.seh_endprologue
	movq	$-2, 456(%rbp)
	callq	_ZN3std4time7Instant3now17hb42da58bf17f9606E
	movl	%edx, 40(%rbp)
	movq	%rax, 32(%rbp)
	leaq	48(%rbp), %rcx
	callq	_ZN3std11collections4hash3set16HashSet$LT$T$GT$3new17hc947bff27dbca105E
	movq	$0, 96(%rbp)
	movq	$0, 104(%rbp)
.Ltmp76:
	leaq	136(%rbp), %rcx
	movl	$1, %edx
	movl	$1000000, %r8d
	callq	_ZN4core3ops5range25RangeInclusive$LT$Idx$GT$3new17ha3308f4d48535766E
.Ltmp77:
	jmp	.LBB222_2
.LBB222_2:
.Ltmp78:
	leaq	112(%rbp), %rcx
	leaq	136(%rbp), %rdx
	callq	_ZN63_$LT$I$u20$as$u20$core..iter..traits..collect..IntoIterator$GT$9into_iter17h9cfda341a0f211ceE
.Ltmp79:
	jmp	.LBB222_3
.LBB222_3:
	movq	112(%rbp), %rax
	movq	%rax, 160(%rbp)
	movq	120(%rbp), %rax
	movq	%rax, 168(%rbp)
	movq	128(%rbp), %rax
	movq	%rax, 176(%rbp)
.LBB222_4:
.Ltmp80:
	leaq	160(%rbp), %rcx
	callq	_ZN4core4iter5range110_$LT$impl$u20$core..iter..traits..iterator..Iterator$u20$for$u20$core..ops..range..RangeInclusive$LT$A$GT$$GT$4next17h1f6c2ce9b98156d3E
.Ltmp81:
	movq	%rdx, 16(%rbp)
	movq	%rax, 24(%rbp)
	jmp	.LBB222_5
.LBB222_5:
	movq	16(%rbp), %rax
	movq	24(%rbp), %rcx
	movq	%rcx, 184(%rbp)
	movq	%rax, 192(%rbp)
	movq	184(%rbp), %rax
	testq	%rax, %rax
	je	.LBB222_7
	jmp	.LBB222_26
.LBB222_26:
	jmp	.LBB222_8
	ud2
.LBB222_7:
.Ltmp94:
	leaq	96(%rbp), %rcx
	callq	_ZN4core3fmt10ArgumentV111new_display17h1cf3081dde0f598eE
.Ltmp95:
	movq	%rdx, (%rbp)
	movq	%rax, 8(%rbp)
	jmp	.LBB222_18
.LBB222_8:
	movq	192(%rbp), %rax
	movq	%rax, 200(%rbp)
	movq	200(%rbp), %rdx
.Ltmp82:
	leaq	208(%rbp), %rcx
	callq	_ZN4main7collatz17h6252568480a7c316E
.Ltmp83:
	jmp	.LBB222_9
.LBB222_9:
.Ltmp84:
	leaq	208(%rbp), %rcx
	callq	_ZN5alloc3vec16Vec$LT$T$C$A$GT$3len17h73c41fe1aefb954eE
.Ltmp85:
	movq	%rax, -8(%rbp)
	jmp	.LBB222_11
.LBB222_11:
.Ltmp86:
	leaq	208(%rbp), %rcx
	callq	_ZN4core3ptr47drop_in_place$LT$alloc..vec..Vec$LT$i64$GT$$GT$17h66e82ff396974997E
.Ltmp87:
	jmp	.LBB222_12
.LBB222_12:
	movq	-8(%rbp), %rax
	cmpq	104(%rbp), %rax
	jg	.LBB222_14
.LBB222_13:
.Ltmp88:
	leaq	200(%rbp), %rcx
	callq	_ZN4core3fmt10ArgumentV111new_display17h1cf3081dde0f598eE
.Ltmp89:
	movq	%rdx, -24(%rbp)
	movq	%rax, -16(%rbp)
	jmp	.LBB222_15
.LBB222_14:
	movq	-8(%rbp), %rax
	movq	200(%rbp), %rcx
	movq	%rcx, 96(%rbp)
	movq	%rax, 104(%rbp)
	jmp	.LBB222_13
.LBB222_15:
	movq	-24(%rbp), %rax
	movq	-16(%rbp), %rcx
	movq	%rcx, 280(%rbp)
	movq	%rax, 288(%rbp)
.Ltmp90:
	movq	%rsp, %rax
	movq	$1, 32(%rax)
	leaq	__unnamed_20(%rip), %rdx
	leaq	232(%rbp), %rcx
	movl	$2, %r8d
	leaq	280(%rbp), %r9
	callq	_ZN4core3fmt9Arguments6new_v117h271eacacf96d9100E
.Ltmp91:
	jmp	.LBB222_16
.LBB222_16:
.Ltmp92:
	leaq	232(%rbp), %rcx
	callq	_ZN3std2io5stdio6_print17ha11868c4d65a0afeE
.Ltmp93:
	jmp	.LBB222_17
.LBB222_17:
	jmp	.LBB222_4
.LBB222_18:
	movq	(%rbp), %rax
	movq	8(%rbp), %rcx
	movq	%rcx, -56(%rbp)
	movq	%rax, -48(%rbp)
.Ltmp96:
	leaq	104(%rbp), %rcx
	callq	_ZN4core3fmt10ArgumentV111new_display17h1cf3081dde0f598eE
.Ltmp97:
	movq	%rdx, -40(%rbp)
	movq	%rax, -32(%rbp)
	jmp	.LBB222_19
.LBB222_19:
	movq	-40(%rbp), %rax
	movq	-32(%rbp), %rcx
	movq	-48(%rbp), %rdx
	movq	-56(%rbp), %r8
	movq	%r8, 344(%rbp)
	movq	%rdx, 352(%rbp)
	movq	%rcx, 360(%rbp)
	movq	%rax, 368(%rbp)
.Ltmp98:
	movq	%rsp, %rax
	movq	$2, 32(%rax)
	leaq	__unnamed_21(%rip), %rdx
	leaq	296(%rbp), %rcx
	movl	$3, %r8d
	leaq	344(%rbp), %r9
	callq	_ZN4core3fmt9Arguments6new_v117h271eacacf96d9100E
.Ltmp99:
	jmp	.LBB222_20
.LBB222_20:
.Ltmp100:
	leaq	296(%rbp), %rcx
	callq	_ZN3std2io5stdio6_print17ha11868c4d65a0afeE
.Ltmp101:
	jmp	.LBB222_21
.LBB222_21:
.Ltmp102:
	leaq	32(%rbp), %rcx
	callq	_ZN3std4time7Instant7elapsed17h1334184affb7b3e7E
.Ltmp103:
	movl	%edx, -68(%rbp)
	movq	%rax, -64(%rbp)
	jmp	.LBB222_22
.LBB222_22:
	movl	-68(%rbp), %eax
	movq	-64(%rbp), %rcx
	movq	%rcx, 440(%rbp)
	movl	%eax, 448(%rbp)
.Ltmp104:
	leaq	440(%rbp), %rcx
	callq	_ZN4core3fmt10ArgumentV19new_debug17hfe97b4c88e78458dE
.Ltmp105:
	movq	%rdx, -88(%rbp)
	movq	%rax, -80(%rbp)
	jmp	.LBB222_23
.LBB222_23:
	movq	-88(%rbp), %rax
	movq	-80(%rbp), %rcx
	movq	%rcx, 424(%rbp)
	movq	%rax, 432(%rbp)
.Ltmp106:
	movq	%rsp, %rax
	movq	$1, 32(%rax)
	leaq	__unnamed_22(%rip), %rdx
	leaq	376(%rbp), %rcx
	movl	$2, %r8d
	leaq	424(%rbp), %r9
	callq	_ZN4core3fmt9Arguments6new_v117h271eacacf96d9100E
.Ltmp107:
	jmp	.LBB222_24
.LBB222_24:
.Ltmp108:
	leaq	376(%rbp), %rcx
	callq	_ZN3std2io5stdio6_print17ha11868c4d65a0afeE
.Ltmp109:
	jmp	.LBB222_25
.LBB222_25:
	leaq	48(%rbp), %rcx
	callq	_ZN4core3ptr68drop_in_place$LT$std..collections..hash..set..HashSet$LT$i32$GT$$GT$17h19d518508f6389b4E
	nop
	addq	$592, %rsp
	popq	%rbp
	retq
	.seh_handlerdata
	.long	($cppxdata$_ZN4main4main17h3c09b0dadcaa4080E)@IMGREL
	.section	.text,"xr",one_only,_ZN4main4main17h3c09b0dadcaa4080E
	.seh_endproc
	.def	"?dtor$1@?0?_ZN4main4main17h3c09b0dadcaa4080E@4HA";
	.scl	3;
	.type	32;
	.endef
	.p2align	4, 0x90
"?dtor$1@?0?_ZN4main4main17h3c09b0dadcaa4080E@4HA":
.seh_proc "?dtor$1@?0?_ZN4main4main17h3c09b0dadcaa4080E@4HA"
.LBB222_1:
	movq	%rdx, 16(%rsp)
	pushq	%rbp
	.seh_pushreg %rbp
	subq	$48, %rsp
	.seh_stackalloc 48
	leaq	128(%rdx), %rbp
	.seh_endprologue
	leaq	48(%rbp), %rcx
	callq	_ZN4core3ptr68drop_in_place$LT$std..collections..hash..set..HashSet$LT$i32$GT$$GT$17h19d518508f6389b4E
	nop
	addq	$48, %rsp
	popq	%rbp
	retq
	.seh_handlerdata
	.section	.text,"xr",one_only,_ZN4main4main17h3c09b0dadcaa4080E
	.seh_endproc
	.def	"?dtor$10@?0?_ZN4main4main17h3c09b0dadcaa4080E@4HA";
	.scl	3;
	.type	32;
	.endef
	.p2align	4, 0x90
"?dtor$10@?0?_ZN4main4main17h3c09b0dadcaa4080E@4HA":
.seh_proc "?dtor$10@?0?_ZN4main4main17h3c09b0dadcaa4080E@4HA"
.LBB222_10:
	movq	%rdx, 16(%rsp)
	pushq	%rbp
	.seh_pushreg %rbp
	subq	$48, %rsp
	.seh_stackalloc 48
	leaq	128(%rdx), %rbp
	.seh_endprologue
	leaq	208(%rbp), %rcx
	callq	_ZN4core3ptr47drop_in_place$LT$alloc..vec..Vec$LT$i64$GT$$GT$17h66e82ff396974997E
	nop
	addq	$48, %rsp
	popq	%rbp
	retq
.Lfunc_end19:
	.seh_handlerdata
	.section	.text,"xr",one_only,_ZN4main4main17h3c09b0dadcaa4080E
	.seh_endproc
	.section	.xdata,"dr",associative,_ZN4main4main17h3c09b0dadcaa4080E
	.p2align	2
$cppxdata$_ZN4main4main17h3c09b0dadcaa4080E:
	.long	429065506
	.long	2
	.long	($stateUnwindMap$_ZN4main4main17h3c09b0dadcaa4080E)@IMGREL
	.long	0
	.long	0
	.long	5
	.long	($ip2state$_ZN4main4main17h3c09b0dadcaa4080E)@IMGREL
	.long	584
	.long	0
	.long	1
$stateUnwindMap$_ZN4main4main17h3c09b0dadcaa4080E:
	.long	-1
	.long	"?dtor$1@?0?_ZN4main4main17h3c09b0dadcaa4080E@4HA"@IMGREL
	.long	0
	.long	"?dtor$10@?0?_ZN4main4main17h3c09b0dadcaa4080E@4HA"@IMGREL
$ip2state$_ZN4main4main17h3c09b0dadcaa4080E:
	.long	.Lfunc_begin19@IMGREL
	.long	-1
	.long	.Ltmp76@IMGREL+1
	.long	0
	.long	.Ltmp84@IMGREL+1
	.long	1
	.long	.Ltmp86@IMGREL+1
	.long	0
	.long	.Ltmp109@IMGREL+1
	.long	-1
	.section	.text,"xr",one_only,_ZN4main4main17h3c09b0dadcaa4080E

	.def	_ZN4main7collatz17h6252568480a7c316E;
	.scl	3;
	.type	32;
	.endef
	.section	.text,"xr",one_only,_ZN4main7collatz17h6252568480a7c316E
	.p2align	4, 0x90
_ZN4main7collatz17h6252568480a7c316E:
.Lfunc_begin20:
.seh_proc _ZN4main7collatz17h6252568480a7c316E
	.seh_handler __CxxFrameHandler3, @unwind, @except
	pushq	%rbp
	.seh_pushreg %rbp
	subq	$96, %rsp
	.seh_stackalloc 96
	leaq	96(%rsp), %rbp
	.seh_setframe %rbp, 96
	.seh_endprologue
	movq	$-2, -8(%rbp)
	movq	%rcx, -24(%rbp)
	movq	%rcx, -32(%rbp)
	movq	%rdx, -16(%rbp)
	movl	$8, %edx
	movq	%rdx, %rcx
	callq	_ZN5alloc5alloc15exchange_malloc17h891a551d6e95bff0E
	movq	-24(%rbp), %rcx
	movq	%rax, %rdx
	movq	-16(%rbp), %r8
	movq	%r8, (%rax)
	movl	$1, %r8d
	callq	_ZN5alloc5slice29_$LT$impl$u20$$u5b$T$u5d$$GT$8into_vec17h757f8fbdd9703865E
.LBB223_1:
	cmpq	$1, -16(%rbp)
	jne	.LBB223_3
	movq	-32(%rbp), %rax
	addq	$96, %rsp
	popq	%rbp
	retq
.LBB223_3:
	movq	-16(%rbp), %rax
	movq	%rax, -40(%rbp)
	xorl	%eax, %eax
	testb	$1, %al
	jne	.LBB223_5
	movq	-40(%rbp), %rax
	movl	$2, %ecx
	cqto
	idivq	%rcx
	cmpq	$0, %rdx
	je	.LBB223_8
	jmp	.LBB223_9
.LBB223_5:
.Ltmp120:
	leaq	str.0(%rip), %rcx
	leaq	__unnamed_23(%rip), %r8
	movl	$48, %edx
	callq	_ZN4core9panicking5panic17hc221da8fdc71a283E
.Ltmp121:
	jmp	.LBB223_7
.LBB223_7:
	ud2
.LBB223_8:
	xorl	%eax, %eax
	testb	$1, %al
	jne	.LBB223_16
	jmp	.LBB223_15
.LBB223_9:
	movl	$3, %eax
	imulq	-16(%rbp), %rax
	movq	%rax, -48(%rbp)
	seto	%al
	testb	$1, %al
	jne	.LBB223_11
	movq	-48(%rbp), %rax
	incq	%rax
	movq	%rax, -56(%rbp)
	seto	%al
	testb	$1, %al
	jne	.LBB223_13
	jmp	.LBB223_12
.LBB223_11:
.Ltmp114:
	leaq	str.1(%rip), %rcx
	leaq	__unnamed_24(%rip), %r8
	movl	$33, %edx
	callq	_ZN4core9panicking5panic17hc221da8fdc71a283E
.Ltmp115:
	jmp	.LBB223_7
.LBB223_12:
	movq	-24(%rbp), %rcx
	movq	-56(%rbp), %rax
	movq	%rax, -16(%rbp)
	movq	-16(%rbp), %rdx
.Ltmp110:
	callq	_ZN5alloc3vec16Vec$LT$T$C$A$GT$4push17h058a22ad0c1a7328E
.Ltmp111:
	jmp	.LBB223_14
.LBB223_13:
.Ltmp112:
	leaq	str.2(%rip), %rcx
	leaq	__unnamed_24(%rip), %r8
	movl	$28, %edx
	callq	_ZN4core9panicking5panic17hc221da8fdc71a283E
.Ltmp113:
	jmp	.LBB223_7
.LBB223_14:
	jmp	.LBB223_1
.LBB223_15:
	movq	-24(%rbp), %rcx
	movq	-16(%rbp), %rax
	movq	%rax, %rdx
	shrq	$63, %rdx
	addq	%rdx, %rax
	sarq	%rax
	movq	%rax, -16(%rbp)
	movq	-16(%rbp), %rdx
.Ltmp116:
	callq	_ZN5alloc3vec16Vec$LT$T$C$A$GT$4push17h058a22ad0c1a7328E
.Ltmp117:
	jmp	.LBB223_17
.LBB223_16:
.Ltmp118:
	leaq	str.3(%rip), %rcx
	leaq	__unnamed_25(%rip), %r8
	movl	$31, %edx
	callq	_ZN4core9panicking5panic17hc221da8fdc71a283E
.Ltmp119:
	jmp	.LBB223_7
.LBB223_17:
	jmp	.LBB223_1
	.seh_handlerdata
	.long	($cppxdata$_ZN4main7collatz17h6252568480a7c316E)@IMGREL
	.section	.text,"xr",one_only,_ZN4main7collatz17h6252568480a7c316E
	.seh_endproc
	.def	"?dtor$6@?0?_ZN4main7collatz17h6252568480a7c316E@4HA";
	.scl	3;
	.type	32;
	.endef
	.p2align	4, 0x90
"?dtor$6@?0?_ZN4main7collatz17h6252568480a7c316E@4HA":
.seh_proc "?dtor$6@?0?_ZN4main7collatz17h6252568480a7c316E@4HA"
.LBB223_6:
	movq	%rdx, 16(%rsp)
	pushq	%rbp
	.seh_pushreg %rbp
	subq	$32, %rsp
	.seh_stackalloc 32
	leaq	96(%rdx), %rbp
	.seh_endprologue
	movq	-24(%rbp), %rcx
	callq	_ZN4core3ptr47drop_in_place$LT$alloc..vec..Vec$LT$i64$GT$$GT$17h66e82ff396974997E
	nop
	addq	$32, %rsp
	popq	%rbp
	retq
.Lfunc_end20:
	.seh_handlerdata
	.section	.text,"xr",one_only,_ZN4main7collatz17h6252568480a7c316E
	.seh_endproc
	.section	.xdata,"dr",associative,_ZN4main7collatz17h6252568480a7c316E
	.p2align	2
$cppxdata$_ZN4main7collatz17h6252568480a7c316E:
	.long	429065506
	.long	1
	.long	($stateUnwindMap$_ZN4main7collatz17h6252568480a7c316E)@IMGREL
	.long	0
	.long	0
	.long	3
	.long	($ip2state$_ZN4main7collatz17h6252568480a7c316E)@IMGREL
	.long	88
	.long	0
	.long	1
$stateUnwindMap$_ZN4main7collatz17h6252568480a7c316E:
	.long	-1
	.long	"?dtor$6@?0?_ZN4main7collatz17h6252568480a7c316E@4HA"@IMGREL
$ip2state$_ZN4main7collatz17h6252568480a7c316E:
	.long	.Lfunc_begin20@IMGREL
	.long	-1
	.long	.Ltmp120@IMGREL+1
	.long	0
	.long	.Ltmp119@IMGREL+1
	.long	-1
	.section	.text,"xr",one_only,_ZN4main7collatz17h6252568480a7c316E

	.def	main;
	.scl	2;
	.type	32;
	.endef
	.section	.text,"xr",one_only,main
	.globl	main
	.p2align	4, 0x90
main:
.seh_proc main
	subq	$40, %rsp
	.seh_stackalloc 40
	.seh_endprologue
	movq	%rdx, %r8
	movslq	%ecx, %rdx
	leaq	_ZN4main4main17h3c09b0dadcaa4080E(%rip), %rcx
	callq	_ZN3std2rt10lang_start17h57dee2fe1aa1d1f4E
	nop
	addq	$40, %rsp
	retq
	.seh_endproc

	.section	.rdata,"dr",one_only,__unnamed_1
	.p2align	3
__unnamed_1:
	.quad	_ZN3std11collections4hash3map11RandomState3new4KEYS7__getit17h7c4ec5f1fb14b384E

	.section	.rdata,"dr",one_only,__unnamed_2
	.p2align	3
__unnamed_2:
	.quad	_ZN4core3ptr85drop_in_place$LT$std..rt..lang_start$LT$$LP$$RP$$GT$..$u7b$$u7b$closure$u7d$$u7d$$GT$17h676148a58a8b60f0E
	.asciz	"\b\000\000\000\000\000\000\000\b\000\000\000\000\000\000"
	.quad	_ZN4core3ops8function6FnOnce40call_once$u7b$$u7b$vtable.shim$u7d$$u7d$17h262064219a5d176eE
	.quad	_ZN3std2rt10lang_start28_$u7b$$u7b$closure$u7d$$u7d$17hb77117b5d731097eE
	.quad	_ZN3std2rt10lang_start28_$u7b$$u7b$closure$u7d$$u7d$17hb77117b5d731097eE

	.section	.rdata,"dr",one_only,__unnamed_3
__unnamed_3:
	.ascii	"cannot access a Thread Local Storage value during or after destruction"

	.section	.rdata,"dr",one_only,__unnamed_26
__unnamed_26:
	.ascii	"/rustc/420c970cb1edccbf60ff2aeb51ca01e2300b09ef\\library\\std\\src\\thread\\local.rs"

	.section	.rdata,"dr",one_only,__unnamed_4
	.p2align	3
__unnamed_4:
	.quad	__unnamed_26
	.asciz	"O\000\000\000\000\000\000\000\245\001\000\000\032\000\000"

	.section	.rdata,"dr",one_only,__unnamed_5
	.p2align	3
__unnamed_5:
	.quad	__unnamed_26
	.asciz	"O\000\000\000\000\000\000\000\274\001\000\000 \000\000"

	.section	.rdata,"dr",one_only,__unnamed_27
__unnamed_27:
	.ascii	"invalid args"

	.section	.rdata,"dr",one_only,__unnamed_6
	.p2align	3
__unnamed_6:
	.quad	__unnamed_27
	.asciz	"\f\000\000\000\000\000\000"

	.section	.rdata,"dr",one_only,__unnamed_7
	.p2align	3
__unnamed_7:

	.section	.rdata,"dr",one_only,__unnamed_28
__unnamed_28:
	.ascii	"/rustc/420c970cb1edccbf60ff2aeb51ca01e2300b09ef\\library\\core\\src\\fmt\\mod.rs"

	.section	.rdata,"dr",one_only,__unnamed_8
	.p2align	3
__unnamed_8:
	.quad	__unnamed_28
	.asciz	"K\000\000\000\000\000\000\000\206\001\000\000\r\000\000"

	.section	.rdata,"dr",one_only,__unnamed_29
__unnamed_29:
	.ascii	"/rustc/420c970cb1edccbf60ff2aeb51ca01e2300b09ef\\library\\core\\src\\ptr\\mod.rs"

	.section	.rdata,"dr",one_only,__unnamed_30
	.p2align	3
__unnamed_30:
	.quad	__unnamed_29
	.asciz	"K\000\000\000\000\000\000\000\200\004\000\000\r\000\000"

	.section	.rdata,"dr",one_only,__unnamed_31
__unnamed_31:
	.ascii	"/rustc/420c970cb1edccbf60ff2aeb51ca01e2300b09ef\\library\\core\\src\\alloc\\layout.rs"

	.section	.rdata,"dr",one_only,__unnamed_9
	.p2align	3
__unnamed_9:
	.quad	__unnamed_31
	.asciz	"P\000\000\000\000\000\000\000\227\001\000\000\032\000\000"

	.section	.rdata,"dr",one_only,__unnamed_10
	.p2align	3
__unnamed_10:
	.quad	_ZN4core3ptr52drop_in_place$LT$std..thread..local..AccessError$GT$17h452cc50f331ccc0dE
	.asciz	"\000\000\000\000\000\000\000\000\001\000\000\000\000\000\000"
	.quad	_ZN68_$LT$std..thread..local..AccessError$u20$as$u20$core..fmt..Debug$GT$3fmt17h6f0fcd89f1adc74eE

	.section	.rdata,"dr",one_only,__unnamed_32
__unnamed_32:
	.ascii	"/rustc/420c970cb1edccbf60ff2aeb51ca01e2300b09ef\\library\\alloc\\src\\alloc.rs"

	.section	.rdata,"dr",one_only,__unnamed_11
	.p2align	3
__unnamed_11:
	.quad	__unnamed_32
	.asciz	"J\000\000\000\000\000\000\000\254\000\000\000\033\000\000"

	.section	.rdata,"dr",one_only,__unnamed_12
	.p2align	3
__unnamed_12:
	.quad	__unnamed_32
	.asciz	"J\000\000\000\000\000\000\000\314\000\000\000\033\000\000"

	.section	.rdata,"dr",one_only,__unnamed_13
	.p2align	3
__unnamed_13:
	.quad	__unnamed_32
	.asciz	"J\000\000\000\000\000\000\000\331\000\000\000\037\000\000"

	.section	.rdata,"dr",one_only,__unnamed_33
__unnamed_33:
	.ascii	"/rustc/420c970cb1edccbf60ff2aeb51ca01e2300b09ef\\library\\alloc\\src\\raw_vec.rs"

	.section	.rdata,"dr",one_only,__unnamed_14
	.p2align	3
__unnamed_14:
	.quad	__unnamed_33
	.asciz	"L\000\000\000\000\000\000\000\310\001\000\000\026\000\000"

	.section	.rdata,"dr",one_only,__unnamed_15
	.p2align	3
__unnamed_15:
	.quad	__unnamed_33
	.asciz	"L\000\000\000\000\000\000\000\312\001\000\000\005\000\000"

	.section	.rdata,"dr",one_only,__unnamed_16
	.p2align	3
__unnamed_16:
	.quad	__unnamed_33
	.asciz	"L\000\000\000\000\000\000\000\367\000\000\000;\000\000"

	.section	.rdata,"dr",one_only,__unnamed_17
	.p2align	3
__unnamed_17:
	.quad	__unnamed_33
	.asciz	"L\000\000\000\000\000\000\000\206\001\000\000\034\000\000"

	.section	.rdata,"dr",one_only,__unnamed_18
	.p2align	3
__unnamed_18:
	.quad	__unnamed_33
	.asciz	"L\000\000\000\000\000\000\000\220\001\000\000\023\000\000"

	.section	.rdata,"dr",one_only,__unnamed_19
	.p2align	4
__unnamed_19:
	.zero	16,255

	.section	.rdata,"dr",one_only,__unnamed_34
__unnamed_34:
	.ascii	"Iteration "

	.section	.rdata,"dr",one_only,__unnamed_35
__unnamed_35:
	.byte	10

	.section	.rdata,"dr",one_only,__unnamed_20
	.p2align	3
__unnamed_20:
	.quad	__unnamed_34
	.asciz	"\n\000\000\000\000\000\000"
	.quad	__unnamed_35
	.asciz	"\001\000\000\000\000\000\000"

	.section	.rdata,"dr",one_only,__unnamed_36
__unnamed_36:
	.ascii	"REDACTED"

	.section	.rdata,"dr",one_only,__unnamed_37
__unnamed_37:
	.ascii	" with a chain length of "

	.section	.rdata,"dr",one_only,__unnamed_21
	.p2align	3
__unnamed_21:
	.quad	__unnamed_36
	.asciz	"=\000\000\000\000\000\000"
	.quad	__unnamed_37
	.asciz	"\030\000\000\000\000\000\000"
	.quad	__unnamed_35
	.asciz	"\001\000\000\000\000\000\000"

	.section	.rdata,"dr",one_only,__unnamed_38
__unnamed_38:
	.ascii	"Time elapsed: "

	.section	.rdata,"dr",one_only,__unnamed_22
	.p2align	3
__unnamed_22:
	.quad	__unnamed_38
	.asciz	"\016\000\000\000\000\000\000"
	.quad	__unnamed_35
	.asciz	"\001\000\000\000\000\000\000"

	.section	.rdata,"dr",one_only,__unnamed_39
__unnamed_39:
	.ascii	"main.rs"

	.section	.rdata,"dr",one_only,__unnamed_23
	.p2align	3
__unnamed_23:
	.quad	__unnamed_39
	.asciz	"\007\000\000\000\000\000\000\000\034\000\000\000\f\000\000"

	.section	.rdata,"dr",one_only,str.0
	.p2align	4
str.0:
	.ascii	"attempt to calculate the remainder with overflow"

	.section	.rdata,"dr",one_only,__unnamed_24
	.p2align	3
__unnamed_24:
	.quad	__unnamed_39
	.asciz	"\007\000\000\000\000\000\000\000 \000\000\000\021\000\000"

	.section	.rdata,"dr",one_only,str.1
	.p2align	4
str.1:
	.ascii	"attempt to multiply with overflow"

	.section	.rdata,"dr",one_only,str.2
	.p2align	4
str.2:
	.ascii	"attempt to add with overflow"

	.section	.rdata,"dr",one_only,__unnamed_25
	.p2align	3
__unnamed_25:
	.quad	__unnamed_39
	.asciz	"\007\000\000\000\000\000\000\000\035\000\000\000\r\000\000"

	.section	.rdata,"dr",one_only,str.3
	.p2align	4
str.3:
	.ascii	"attempt to divide with overflow"

